

Microchip MPLAB XC8 Assembler V2.41 build 20230208172133 
                                                                                               Sun Jun  4 16:43:17 2023

Microchip MPLAB XC8 C Compiler v2.41 (Free license) build 20230208172133 Og9 
     1                           	processor	18F4550
     2                           	fnconf	rparam,??,?,0
     3                           	pagewidth 120
     4                           	opt	flic
     5                           	psect	idataCOMRAM,global,class=CODE,delta=1,noexec
     6                           	psect	smallconst,global,reloc=2,class=SMALLCONST,delta=1,noexec
     7                           	psect	cinit,global,reloc=2,class=CODE,delta=1
     8                           	psect	bssCOMRAM,global,class=COMRAM,space=1,delta=1,lowdata,noexec
     9                           	psect	dataCOMRAM,global,class=COMRAM,space=1,delta=1,lowdata,noexec
    10                           	psect	bssBANK0,global,class=BANK0,space=1,delta=1,lowdata,noexec
    11                           	psect	cstackBANK0,global,class=BANK0,space=1,delta=1,lowdata,noexec
    12                           	psect	cstackCOMRAM,global,class=COMRAM,space=1,delta=1,lowdata,noexec
    13                           	psect	text0,global,reloc=2,class=CODE,delta=1
    14                           	psect	text1,global,reloc=2,class=CODE,delta=1
    15                           	psect	text2,global,reloc=2,class=CODE,delta=1
    16                           	psect	text3,global,reloc=2,class=CODE,delta=1
    17                           	psect	text4,global,reloc=2,class=CODE,delta=1,group=2
    18                           	psect	text5,global,reloc=2,class=CODE,delta=1,group=2
    19                           	psect	text6,global,reloc=2,class=CODE,delta=1
    20                           	psect	text7,global,reloc=2,class=CODE,delta=1
    21                           	psect	text8,global,reloc=2,class=CODE,delta=1
    22                           	psect	text9,global,reloc=2,class=CODE,delta=1
    23                           	psect	text10,global,reloc=2,class=CODE,delta=1
    24                           	psect	text11,global,reloc=2,class=CODE,delta=1
    25                           	psect	text12,global,reloc=2,class=CODE,delta=1
    26                           	psect	text13,global,reloc=2,class=CODE,delta=1
    27                           	psect	text14,global,reloc=2,class=CODE,delta=1
    28                           	psect	text15,global,reloc=2,class=CODE,delta=1
    29                           	psect	text16,global,reloc=2,class=CODE,delta=1
    30                           	psect	text17,global,reloc=2,class=CODE,delta=1
    31                           	psect	text18,global,reloc=2,class=CODE,delta=1
    32                           	psect	text19,global,reloc=2,class=CODE,delta=1
    33                           	psect	text20,global,reloc=2,class=CODE,delta=1
    34                           	psect	text21,global,reloc=2,class=CODE,delta=1
    35                           	psect	text22,global,reloc=2,class=CODE,delta=1
    36                           	psect	text23,global,reloc=2,class=CODE,delta=1
    37                           	psect	text24,global,reloc=2,class=CODE,delta=1
    38                           	psect	text25,global,reloc=2,class=CODE,delta=1
    39                           	psect	text26,global,reloc=2,class=CODE,delta=1
    40                           	psect	text27,global,reloc=2,class=CODE,delta=1,group=1
    41                           	psect	text28,global,reloc=2,class=CODE,delta=1,group=2
    42                           	psect	text29,global,reloc=2,class=CODE,delta=1,group=2
    43                           	psect	text30,global,reloc=2,class=CODE,delta=1,group=2
    44                           	psect	text31,global,reloc=2,class=CODE,delta=1,group=2
    45                           	psect	text32,global,reloc=2,class=CODE,delta=1,group=2
    46                           	psect	text33,global,reloc=2,class=CODE,delta=1,group=2
    47                           	psect	text34,global,reloc=2,class=CODE,delta=1,group=2
    48                           	psect	text35,global,reloc=2,class=CODE,delta=1,group=2
    49                           	psect	text36,global,reloc=2,class=CODE,delta=1
    50                           	psect	intcode,global,reloc=2,class=CODE,delta=1
    51                           	psect	intcode_body,global,reloc=2,class=CODE,delta=1
    52                           	psect	intsave_regs,global,class=BIGRAM,space=1,delta=1,noexec
    53                           	psect	rparam,global,class=COMRAM,space=1,delta=1,noexec
    54                           	psect	temp,global,ovrld,common,class=COMRAM,space=1,delta=1
    55                           	psect	idloc,global,abs,ovrld,class=IDLOC,space=5,delta=1,noexec
    56                           	psect	config,global,abs,ovrld,class=CONFIG,space=4,delta=1,noexec
    57   000000                     
    58                           ; Generated 09/02/2023 GMT
    59                           ; 
    60                           ; Copyright © 2023, Microchip Technology Inc. and its subsidiaries ("Microchip")
    61                           ; All rights reserved.
    62                           ; 
    63                           ; This software is developed by Microchip Technology Inc. and its subsidiaries ("Microch
      +                          ip").
    64                           ; 
    65                           ; Redistribution and use in source and binary forms, with or without modification, are
    66                           ; permitted provided that the following conditions are met:
    67                           ; 
    68                           ;     1. Redistributions of source code must retain the above copyright notice, this lis
      +                          t of
    69                           ;        conditions and the following disclaimer.
    70                           ; 
    71                           ;     2. Redistributions in binary form must reproduce the above copyright notice, this 
      +                          list
    72                           ;        of conditions and the following disclaimer in the documentation and/or other
    73                           ;        materials provided with the distribution. Publication is not required when
    74                           ;        this file is used in an embedded application.
    75                           ; 
    76                           ;     3. Microchip's name may not be used to endorse or promote products derived from th
      +                          is
    77                           ;        software without specific prior written permission.
    78                           ; 
    79                           ; THIS SOFTWARE IS PROVIDED BY MICROCHIP "AS IS" AND ANY EXPRESS OR IMPLIED WARRANTIES,
    80                           ; INCLUDING, BUT NOT LIMITED TO, THE IMPLIED WARRANTIES OF MERCHANTABILITY AND FITNESS F
      +                          OR
    81                           ; PURPOSE ARE DISCLAIMED.  IN NO EVENT SHALL MICROCHIP BE LIABLE FOR ANY DIRECT, INDIREC
      +                          T,
    82                           ; INCIDENTAL, SPECIAL, EXEMPLARY, OR CONSEQUENTIAL DAMAGES (INCLUDING BUT NOT LIMITED TO
    83                           ; PROCUREMENT OF SUBSTITUTE GOODS OR SERVICES; LOSS OF USE, DATA OR PROFITS; OR BUSINESS
    84                           ; INTERRUPTION) HOWSOEVER CAUSED AND ON ANY THEORY OF LIABILITY, WHETHER IN CONTRACT, ST
      +                          RICT
    85                           ; LIABILITY, OR TORT (INCLUDING NEGLIGENCE OR OTHERWISE) ARISING IN ANY WAY OUT OF THE U
      +                          SE OF
    86                           ; THIS SOFTWARE, EVEN IF ADVISED OF THE POSSIBILITY OF SUCH DAMAGE.
    87                           ; 
    88                           ; 
    89                           ; Code-generator required, PIC18F4550 Definitions
    90                           ; 
    91                           ; SFR Addresses
    92   000000                     
    93                           	psect	idataCOMRAM
    94   001938                     __pidataCOMRAM:
    95                           	callstack 0
    96                           
    97                           ;initializer for _interfaz
    98   001938  08                 	db	8
    99                           
   100                           	psect	smallconst
   101   000800                     __psmallconst:
   102                           	callstack 0
   103   000800  00                 	db	0
   104   000801                     _dpowers:
   105                           	callstack 0
   106   000801  0001               	dw	1
   107   000803  000A               	dw	10
   108   000805  0064               	dw	100
   109   000807  03E8               	dw	1000
   110   000809  2710               	dw	10000
   111   00080B                     __end_of_dpowers:
   112                           	callstack 0
   113   000000                     _EECON2	set	4007
   114   000000                     _TRISD	set	3989
   115   000000                     _RD	set	32048
   116   000000                     _WR	set	32049
   117   000000                     _WREN	set	32050
   118   000000                     _CFGS	set	32054
   119   000000                     _TRMT	set	32097
   120   000000                     _RA3	set	31747
   121   000000                     _LATE1	set	31849
   122   000000                     _LATE2	set	31850
   123   000000                     _LATE0	set	31848
   124   000000                     _GO	set	32273
   125   000000                     _ADON	set	32272
   126   000000                     _LATC1	set	31833
   127   000000                     _TRISC1	set	31905
   128   000000                     _TMR0ON	set	32431
   129   000000                     _GIE	set	32663
   130   000000                     _TMR0IE	set	32661
   131   000000                     _LATD1	set	31841
   132   000000                     _LATD0	set	31840
   133   000000                     _LATD	set	3980
   134   000000                     _RA2	set	31746
   135   000000                     _RC1	set	31761
   136   000000                     _LATB0	set	31824
   137   000000                     _LATC2	set	31834
   138   000000                     _LATE	set	3981
   139   000000                     _TRISE	set	3990
   140   000000                     _RCSTA	set	4011
   141   000000                     _TXSTA	set	4012
   142   000000                     _TRISB0	set	31896
   143   000000                     _TRISC2	set	31906
   144   000000                     _SWDTEN	set	32392
   145   000000                     _OSCCON	set	4051
   146   000000                     _T0CON	set	4053
   147   000000                     _TXREG	set	4013
   148   000000                     _SPBRG	set	4015
   149   000000                     _BAUDCON	set	4024
   150   000000                     _ADCON2	set	4032
   151   000000                     _ADCON1	set	4033
   152   000000                     _ADRES	set	4035
   153   000000                     _ADCON0	set	4034
   154   000000                     _TO	set	32387
   155   000000                     _EEDATA	set	4008
   156   000000                     _EEADR	set	4009
   157   000000                     _EEPGD	set	32055
   158   000000                     _TMR0	set	4054
   159   000000                     _TMR0IF	set	32658
   160   00080B                     STR_4:
   161   00080B  4C                 	db	76	;'L'
   162   00080C  61                 	db	97	;'a'
   163   00080D  73                 	db	115	;'s'
   164   00080E  74                 	db	116	;'t'
   165   00080F  20                 	db	32
   166   000810  54                 	db	84	;'T'
   167   000811  65                 	db	101	;'e'
   168   000812  6D                 	db	109	;'m'
   169   000813  70                 	db	112	;'p'
   170   000814  65                 	db	101	;'e'
   171   000815  72                 	db	114	;'r'
   172   000816  61                 	db	97	;'a'
   173   000817  74                 	db	116	;'t'
   174   000818  75                 	db	117	;'u'
   175   000819  72                 	db	114	;'r'
   176   00081A  65                 	db	101	;'e'
   177   00081B  00                 	db	0
   178   00081C                     STR_1:
   179   00081C  46                 	db	70	;'F'
   180   00081D  61                 	db	97	;'a'
   181   00081E  69                 	db	105	;'i'
   182   00081F  6C                 	db	108	;'l'
   183   000820  65                 	db	101	;'e'
   184   000821  64                 	db	100	;'d'
   185   000822  20                 	db	32
   186   000823  44                 	db	68	;'D'
   187   000824  48                 	db	72	;'H'
   188   000825  54                 	db	84	;'T'
   189   000826  31                 	db	49	;'1'
   190   000827  31                 	db	49	;'1'
   191   000828  00                 	db	0
   192   000829                     STR_3:
   193   000829  0A                 	db	10
   194   00082A  47                 	db	71	;'G'
   195   00082B  6F                 	db	111	;'o'
   196   00082C  64                 	db	100	;'d'
   197   00082D  20                 	db	32
   198   00082E  69                 	db	105	;'i'
   199   00082F  73                 	db	115	;'s'
   200   000830  20                 	db	32
   201   000831  67                 	db	103	;'g'
   202   000832  6F                 	db	111	;'o'
   203   000833  6F                 	db	111	;'o'
   204   000834  64                 	db	100	;'d'
   205   000835  00                 	db	0
   206   000836                     STR_15:
   207   000836  54                 	db	84	;'T'
   208   000837  3A                 	db	58	;':'
   209   000838  20                 	db	32
   210   000839  25                 	db	37
   211   00083A  69                 	db	105	;'i'
   212   00083B  20                 	db	32
   213   00083C  43                 	db	67	;'C'
   214   00083D  0A                 	db	10
   215   00083E  00                 	db	0
   216   00083F                     STR_11:
   217   00083F  54                 	db	84	;'T'
   218   000840  3A                 	db	58	;':'
   219   000841  20                 	db	32
   220   000842  25                 	db	37
   221   000843  69                 	db	105	;'i'
   222   000844  20                 	db	32
   223   000845  52                 	db	82	;'R'
   224   000846  61                 	db	97	;'a'
   225   000847  00                 	db	0
   226   000848                     STR_8:
   227   000848  48                 	db	72	;'H'
   228   000849  3A                 	db	58	;':'
   229   00084A  20                 	db	32
   230   00084B  25                 	db	37
   231   00084C  69                 	db	105	;'i'
   232   00084D  20                 	db	32
   233   00084E  25                 	db	37
   234   00084F  63                 	db	99	;'c'
   235   000850  00                 	db	0
   236   000851                     STR_7:
   237   000851  54                 	db	84	;'T'
   238   000852  3A                 	db	58	;':'
   239   000853  20                 	db	32
   240   000854  25                 	db	37
   241   000855  69                 	db	105	;'i'
   242   000856  20                 	db	32
   243   000857  43                 	db	67	;'C'
   244   000858  00                 	db	0
   245   000859                     STR_13:
   246   000859  54                 	db	84	;'T'
   247   00085A  3A                 	db	58	;':'
   248   00085B  20                 	db	32
   249   00085C  25                 	db	37
   250   00085D  69                 	db	105	;'i'
   251   00085E  20                 	db	32
   252   00085F  46                 	db	70	;'F'
   253   000860  00                 	db	0
   254   000861                     STR_9:
   255   000861  54                 	db	84	;'T'
   256   000862  3A                 	db	58	;':'
   257   000863  20                 	db	32
   258   000864  25                 	db	37
   259   000865  69                 	db	105	;'i'
   260   000866  20                 	db	32
   261   000867  4B                 	db	75	;'K'
   262   000868  00                 	db	0
   263   000869                     STR_2:
   264   000869  53                 	db	83	;'S'
   265   00086A  65                 	db	101	;'e'
   266   00086B  6E                 	db	110	;'n'
   267   00086C  73                 	db	115	;'s'
   268   00086D  6F                 	db	111	;'o'
   269   00086E  72                 	db	114	;'r'
   270   00086F  73                 	db	115	;'s'
   271   000870  00                 	db	0
   272   000871                     STR_5:
   273   000871  0A                 	db	10
   274   000872  54                 	db	84	;'T'
   275   000873  3A                 	db	58	;':'
   276   000874  20                 	db	32
   277   000875  00                 	db	0
   278   000876  00                 	db	0	; dummy byte at the end
   279   000000                     
   280                           ; #config settings
   281                           
   282                           	psect	cinit
   283   001780                     __pcinit:
   284                           	callstack 0
   285   001780                     start_initialization:
   286                           	callstack 0
   287   001780                     __initialization:
   288                           	callstack 0
   289                           
   290                           ; Initialize objects allocated to COMRAM (1 bytes)
   291                           ; load TBLPTR registers with __pidataCOMRAM
   292   001780  0E38               	movlw	low __pidataCOMRAM
   293   001782  6EF6               	movwf	tblptrl,c
   294   001784  0E19               	movlw	high __pidataCOMRAM
   295   001786  6EF7               	movwf	tblptrh,c
   296   001788  0E00               	movlw	low (__pidataCOMRAM shr (0+16))
   297   00178A  6EF8               	movwf	tblptru,c
   298   00178C  0009               	tblrd		*+	;fetch initializer
   299   00178E  CFF5 F04C          	movff	tablat,__pdataCOMRAM
   300                           
   301                           ; Clear objects allocated to BANK0 (4 bytes)
   302   001792  0100               	movlb	0
   303   001794  6B88               	clrf	(__pbssBANK0+3)& (0+255),b
   304   001796  6B87               	clrf	(__pbssBANK0+2)& (0+255),b
   305   001798  6B86               	clrf	(__pbssBANK0+1)& (0+255),b
   306   00179A  6B85               	clrf	__pbssBANK0& (0+255),b
   307                           
   308                           ; Clear objects allocated to COMRAM (1 bytes)
   309   00179C  6A4B               	clrf	__pbssCOMRAM& (0+255),c
   310   00179E                     end_of_initialization:
   311                           	callstack 0
   312   00179E                     __end_of__initialization:
   313                           	callstack 0
   314   00179E  904D               	bcf	int$flags,0,c	;clear compiler interrupt flag (level 1)
   315   0017A0  924D               	bcf	int$flags,1,c	;clear compiler interrupt flag (level 2)
   316   0017A2  0E00               	movlw	low (__Lmediumconst shr (0+16))
   317   0017A4  6EF8               	movwf	tblptru,c
   318   0017A6  0100               	movlb	0
   319   0017A8  EF64  F00A         	goto	_main	;jump to C main() function
   320                           
   321                           	psect	bssCOMRAM
   322   00004B                     __pbssCOMRAM:
   323                           	callstack 0
   324   00004B                     _Che:
   325                           	callstack 0
   326   00004B                     	ds	1
   327                           
   328                           	psect	dataCOMRAM
   329   00004C                     __pdataCOMRAM:
   330                           	callstack 0
   331   00004C                     _interfaz:
   332                           	callstack 0
   333   00004C                     	ds	1
   334                           
   335                           	psect	bssBANK0
   336   000085                     __pbssBANK0:
   337                           	callstack 0
   338   000085                     _Scale_Temperature:
   339                           	callstack 0
   340   000085                     	ds	1
   341   000086                     _Enable_sample:
   342                           	callstack 0
   343   000086                     	ds	1
   344   000087                     _Hum:
   345                           	callstack 0
   346   000087                     	ds	1
   347   000088                     _Temp:
   348                           	callstack 0
   349   000088                     	ds	1
   350                           
   351                           	psect	cstackBANK0
   352   000060                     __pcstackBANK0:
   353                           	callstack 0
   354   000060                     main@buffer_LCD_row_1:
   355                           	callstack 0
   356                           
   357                           ; 17 bytes @ 0x0
   358   000060                     	ds	17
   359   000071                     main@buffer_LCD_row_2:
   360                           	callstack 0
   361                           
   362                           ; 17 bytes @ 0x11
   363   000071                     	ds	17
   364   000082                     main@Temp_n1:
   365                           	callstack 0
   366                           
   367                           ; 1 bytes @ 0x22
   368   000082                     	ds	1
   369   000083                     main@Hum_n1:
   370                           	callstack 0
   371                           
   372                           ; 1 bytes @ 0x23
   373   000083                     	ds	1
   374   000084                     main@Scale_Temperature_n1:
   375                           	callstack 0
   376                           
   377                           ; 1 bytes @ 0x24
   378   000084                     	ds	1
   379                           
   380                           	psect	cstackCOMRAM
   381   000001                     __pcstackCOMRAM:
   382                           	callstack 0
   383   000001                     ??_RetardoLCD:
   384   000001                     ??_DHT11_Start:
   385   000001                     ??_DHT11_CheckResponse:
   386   000001                     ??_DHT11_ReadData:
   387   000001                     ?___lwdiv:
   388                           	callstack 0
   389   000001                     ?___ftpack:
   390                           	callstack 0
   391   000001                     ConfiguraLCD@a:
   392                           	callstack 0
   393   000001                     Transmitir@BufferT:
   394                           	callstack 0
   395   000001                     EEPROM_Write@data:
   396                           	callstack 0
   397   000001                     EEPROM_Read@address:
   398                           	callstack 0
   399   000001                     ___lbmod@divisor:
   400                           	callstack 0
   401   000001                     ___lwdiv@dividend:
   402                           	callstack 0
   403   000001                     ___ftpack@arg:
   404                           	callstack 0
   405                           
   406                           ; 3 bytes @ 0x0
   407   000001                     	ds	1
   408   000002                     RetardoLCD@a:
   409                           	callstack 0
   410   000002                     DHT11_ReadData@i:
   411                           	callstack 0
   412   000002                     EEPROM_Write@address:
   413                           	callstack 0
   414   000002                     ___lbmod@dividend:
   415                           	callstack 0
   416                           
   417                           ; 1 bytes @ 0x1
   418   000002                     	ds	1
   419   000003                     ??_EnviaDato:
   420   000003                     DHT11_ReadData@data:
   421                           	callstack 0
   422   000003                     ___lbmod@counter:
   423                           	callstack 0
   424   000003                     ___lwdiv@divisor:
   425                           	callstack 0
   426                           
   427                           ; 2 bytes @ 0x2
   428   000003                     	ds	1
   429   000004                     EnviaDato@a:
   430                           	callstack 0
   431   000004                     ___ftpack@exp:
   432                           	callstack 0
   433   000004                     ___lbmod@rem:
   434                           	callstack 0
   435                           
   436                           ; 1 bytes @ 0x3
   437   000004                     	ds	1
   438   000005                     ??_init_configuration:
   439   000005                     EscribeLCD_c@a:
   440                           	callstack 0
   441   000005                     DireccionaLCD@a:
   442                           	callstack 0
   443   000005                     ___ftpack@sign:
   444                           	callstack 0
   445   000005                     ___lbdiv@divisor:
   446                           	callstack 0
   447   000005                     ___lwdiv@quotient:
   448                           	callstack 0
   449                           
   450                           ; 2 bytes @ 0x4
   451   000005                     	ds	1
   452   000006                     ??___ftpack:
   453   000006                     MensajeLCD_Var@a:
   454                           	callstack 0
   455   000006                     show_temperature_LCD@buffer_LCD_row_1:
   456                           	callstack 0
   457   000006                     ___lbdiv@dividend:
   458                           	callstack 0
   459                           
   460                           ; 1 bytes @ 0x5
   461   000006                     	ds	1
   462   000007                     ??_MensajeLCD_Var:
   463   000007                     show_temperature_LCD@buffer_LCD_row_2:
   464                           	callstack 0
   465   000007                     ___lbdiv@counter:
   466                           	callstack 0
   467   000007                     ___lwdiv@counter:
   468                           	callstack 0
   469                           
   470                           ; 1 bytes @ 0x6
   471   000007                     	ds	1
   472   000008                     ?___lwmod:
   473                           	callstack 0
   474   000008                     MensajeLCD_Var@counter:
   475                           	callstack 0
   476   000008                     show_temperature_LCD@Temp_n1:
   477                           	callstack 0
   478   000008                     ___lbdiv@quotient:
   479                           	callstack 0
   480   000008                     ___lwmod@dividend:
   481                           	callstack 0
   482                           
   483                           ; 2 bytes @ 0x7
   484   000008                     	ds	1
   485   000009                     ?___lbtoft:
   486                           	callstack 0
   487   000009                     EscribeLCD_n8@b:
   488                           	callstack 0
   489   000009                     show_temperature_LCD@Hum_n1:
   490                           	callstack 0
   491                           
   492                           ; 1 bytes @ 0x8
   493   000009                     	ds	1
   494   00000A                     EscribeLCD_n8@centena:
   495                           	callstack 0
   496   00000A                     show_temperature_LCD@Scale_Temperature_n1:
   497                           	callstack 0
   498   00000A                     ___lwmod@divisor:
   499                           	callstack 0
   500                           
   501                           ; 2 bytes @ 0x9
   502   00000A                     	ds	1
   503   00000B                     EscribeLCD_n8@decena:
   504                           	callstack 0
   505   00000B                     show_temperature_LCD@counter:
   506                           	callstack 0
   507                           
   508                           ; 1 bytes @ 0xA
   509   00000B                     	ds	1
   510   00000C                     EscribeLCD_n8@unidad:
   511                           	callstack 0
   512   00000C                     ___lbtoft@c:
   513                           	callstack 0
   514   00000C                     ___lwmod@counter:
   515                           	callstack 0
   516                           
   517                           ; 1 bytes @ 0xB
   518   00000C                     	ds	1
   519   00000D                     ?_sprintf:
   520                           	callstack 0
   521   00000D                     ?___ftmul:
   522                           	callstack 0
   523   00000D                     EscribeLCD_n8@a:
   524                           	callstack 0
   525   00000D                     sprintf@sp:
   526                           	callstack 0
   527   00000D                     ___ftmul@f1:
   528                           	callstack 0
   529                           
   530                           ; 3 bytes @ 0xC
   531   00000D                     	ds	1
   532   00000E                     ??_welcome_operations:
   533   00000E                     sprintf@f:
   534                           	callstack 0
   535                           
   536                           ; 1 bytes @ 0xD
   537   00000E                     	ds	2
   538   000010                     ___ftmul@f2:
   539                           	callstack 0
   540                           
   541                           ; 3 bytes @ 0xF
   542   000010                     	ds	3
   543   000013                     ??_sprintf:
   544   000013                     ??___ftmul:
   545                           
   546                           ; 1 bytes @ 0x12
   547   000013                     	ds	1
   548   000014                     sprintf@flag:
   549                           	callstack 0
   550                           
   551                           ; 1 bytes @ 0x13
   552   000014                     	ds	1
   553   000015                     sprintf@prec:
   554                           	callstack 0
   555                           
   556                           ; 1 bytes @ 0x14
   557   000015                     	ds	1
   558   000016                     sprintf@ap:
   559                           	callstack 0
   560   000016                     ___ftmul@exp:
   561                           	callstack 0
   562                           
   563                           ; 1 bytes @ 0x15
   564   000016                     	ds	1
   565   000017                     sprintf@val:
   566                           	callstack 0
   567   000017                     ___ftmul@f3_as_product:
   568                           	callstack 0
   569                           
   570                           ; 3 bytes @ 0x16
   571   000017                     	ds	2
   572   000019                     sprintf@c:
   573                           	callstack 0
   574                           
   575                           ; 1 bytes @ 0x18
   576   000019                     	ds	1
   577   00001A                     ??_send_temperature_RS232:
   578   00001A                     ___ftmul@cntr:
   579                           	callstack 0
   580                           
   581                           ; 1 bytes @ 0x19
   582   00001A                     	ds	1
   583   00001B                     ___ftmul@sign:
   584                           	callstack 0
   585                           
   586                           ; 1 bytes @ 0x1A
   587   00001B                     	ds	1
   588   00001C                     ?___ftdiv:
   589                           	callstack 0
   590   00001C                     ___ftdiv@f1:
   591                           	callstack 0
   592   00001C                     send_temperature_RS232@buffer_RS232:
   593                           	callstack 0
   594                           
   595                           ; 12 bytes @ 0x1B
   596   00001C                     	ds	3
   597   00001F                     ___ftdiv@f2:
   598                           	callstack 0
   599                           
   600                           ; 3 bytes @ 0x1E
   601   00001F                     	ds	3
   602   000022                     ??___ftdiv:
   603                           
   604                           ; 1 bytes @ 0x21
   605   000022                     	ds	3
   606   000025                     ___ftdiv@cntr:
   607                           	callstack 0
   608                           
   609                           ; 1 bytes @ 0x24
   610   000025                     	ds	1
   611   000026                     ___ftdiv@f3:
   612                           	callstack 0
   613                           
   614                           ; 3 bytes @ 0x25
   615   000026                     	ds	2
   616   000028                     send_temperature_RS232@counter:
   617                           	callstack 0
   618                           
   619                           ; 1 bytes @ 0x27
   620   000028                     	ds	1
   621   000029                     ___ftdiv@exp:
   622                           	callstack 0
   623                           
   624                           ; 1 bytes @ 0x28
   625   000029                     	ds	1
   626   00002A                     ___ftdiv@sign:
   627                           	callstack 0
   628                           
   629                           ; 1 bytes @ 0x29
   630   00002A                     	ds	1
   631   00002B                     ?___ftadd:
   632                           	callstack 0
   633   00002B                     ___ftadd@f1:
   634                           	callstack 0
   635                           
   636                           ; 3 bytes @ 0x2A
   637   00002B                     	ds	3
   638   00002E                     ___ftadd@f2:
   639                           	callstack 0
   640                           
   641                           ; 3 bytes @ 0x2D
   642   00002E                     	ds	3
   643   000031                     ??___ftadd:
   644                           
   645                           ; 1 bytes @ 0x30
   646   000031                     	ds	3
   647   000034                     ___ftadd@sign:
   648                           	callstack 0
   649                           
   650                           ; 1 bytes @ 0x33
   651   000034                     	ds	1
   652   000035                     ___ftadd@exp2:
   653                           	callstack 0
   654                           
   655                           ; 1 bytes @ 0x34
   656   000035                     	ds	1
   657   000036                     ___ftadd@exp1:
   658                           	callstack 0
   659                           
   660                           ; 1 bytes @ 0x35
   661   000036                     	ds	1
   662   000037                     ?___fttol:
   663                           	callstack 0
   664   000037                     ___fttol@f1:
   665                           	callstack 0
   666                           
   667                           ; 3 bytes @ 0x36
   668   000037                     	ds	4
   669   00003B                     ??___fttol:
   670                           
   671                           ; 1 bytes @ 0x3A
   672   00003B                     	ds	5
   673   000040                     ___fttol@sign1:
   674                           	callstack 0
   675                           
   676                           ; 1 bytes @ 0x3F
   677   000040                     	ds	1
   678   000041                     ___fttol@lval:
   679                           	callstack 0
   680                           
   681                           ; 4 bytes @ 0x40
   682   000041                     	ds	4
   683   000045                     ___fttol@exp1:
   684                           	callstack 0
   685                           
   686                           ; 1 bytes @ 0x44
   687   000045                     	ds	1
   688   000046                     choose_scale_temperature_and_fill_buffers@buffer_LCD_row_1:
   689                           	callstack 0
   690                           
   691                           ; 1 bytes @ 0x45
   692   000046                     	ds	1
   693   000047                     choose_scale_temperature_and_fill_buffers@buffer_LCD_row_2:
   694                           	callstack 0
   695                           
   696                           ; 1 bytes @ 0x46
   697   000047                     	ds	1
   698   000048                     ??_choose_scale_temperature_and_fill_buffers:
   699                           
   700                           ; 1 bytes @ 0x47
   701   000048                     	ds	1
   702   000049                     choose_scale_temperature_and_fill_buffers@temp_converted:
   703                           	callstack 0
   704                           
   705                           ; 2 bytes @ 0x48
   706   000049                     	ds	2
   707   00004B                     
   708                           ; 1 bytes @ 0x4A
   709 ;;
   710 ;;Main: autosize = 0, tempsize = 0, incstack = 0, save=0
   711 ;;
   712 ;; *************** function _main *****************
   713 ;; Defined at:
   714 ;;		line 86 in file "/home/esteban/Esteban/UN/semester12/Microcontroladores/MPLAB_X_IDE/lab05_ADC.X/LAB05.c"
   715 ;; Parameters:    Size  Location     Type
   716 ;;		None
   717 ;; Auto vars:     Size  Location     Type
   718 ;;  buffer_LCD_r   17   17[BANK0 ] unsigned char [17]
   719 ;;  buffer_LCD_r   17    0[BANK0 ] unsigned char [17]
   720 ;;  Scale_Temper    1   36[BANK0 ] unsigned char 
   721 ;;  Hum_n1          1   35[BANK0 ] unsigned char 
   722 ;;  Temp_n1         1   34[BANK0 ] unsigned char 
   723 ;; Return value:  Size  Location     Type
   724 ;;                  1    wreg      void 
   725 ;; Registers used:
   726 ;;		wreg, fsr2l, fsr2h, status,2, status,0, tblptrl, tblptrh, tblptru, prodl, prodh, cstack
   727 ;; Tracked objects:
   728 ;;		On entry : 0/0
   729 ;;		On exit  : 3F/0
   730 ;;		Unchanged: 0/0
   731 ;; Data sizes:     COMRAM   BANK0   BANK1   BANK2   BANK3   BANK4   BANK5   BANK6   BANK7
   732 ;;      Params:         0       0       0       0       0       0       0       0       0
   733 ;;      Locals:         0      37       0       0       0       0       0       0       0
   734 ;;      Temps:          0       0       0       0       0       0       0       0       0
   735 ;;      Totals:         0      37       0       0       0       0       0       0       0
   736 ;;Total ram usage:       37 bytes
   737 ;; Hardware stack levels required when called: 6
   738 ;; This function calls:
   739 ;;		_check_potentiometer_voltaje
   740 ;;		_choose_scale_temperature_and_fill_buffers
   741 ;;		_init_configuration
   742 ;;		_measure_temperature_c_humidity_per
   743 ;;		_save_temperature_c_EEPROM
   744 ;;		_send_temperature_RS232
   745 ;;		_show_temperature_LCD
   746 ;;		_show_temperature_c_RGB
   747 ;;		_welcome_operations
   748 ;; This function is called by:
   749 ;;		Startup code after reset
   750 ;; This function uses a non-reentrant model
   751 ;;
   752                           
   753                           	psect	text0
   754   0014C8                     __ptext0:
   755                           	callstack 0
   756   0014C8                     _main:
   757                           	callstack 25
   758                           
   759                           ;LAB05.c: 87: init_configuration();
   760                           
   761                           ;incstack = 0
   762   0014C8  ECF0  F009         	call	_init_configuration	;wreg free
   763                           
   764                           ;LAB05.c: 88: welcome_operations();
   765   0014CC  ECB2  F009         	call	_welcome_operations	;wreg free
   766                           
   767                           ;LAB05.c: 91: SWDTEN = 1;
   768   0014D0  80D1               	bsf	4049,0,c	;volatile
   769                           
   770                           ;LAB05.c: 95: unsigned char buffer_LCD_row_1[17];;LAB05.c: 96: unsigned char buffer_LCD_
      +                          row_2[17];;LAB05.c: 99: unsigned char Temp_n1=255;
   771   0014D2  0100               	movlb	0	; () banked
   772   0014D4  6982               	setf	main@Temp_n1& (0+255),b
   773                           
   774                           ; BSR set to: 0
   775                           ;LAB05.c: 100: unsigned char Hum_n1=255;
   776   0014D6  6983               	setf	main@Hum_n1& (0+255),b
   777                           
   778                           ; BSR set to: 0
   779                           ;LAB05.c: 101: unsigned char Scale_Temperature_n1=255;
   780   0014D8  6984               	setf	main@Scale_Temperature_n1& (0+255),b
   781   0014DA                     l2964:
   782                           
   783                           ; BSR set to: 0
   784                           ;LAB05.c: 105: if(Enable_sample){
   785   0014DA  5186               	movf	_Enable_sample& (0+255),w,b
   786   0014DC  B4D8               	btfsc	status,2,c
   787   0014DE  D7FD               	goto	l2964
   788                           
   789                           ; BSR set to: 0
   790                           ;LAB05.c: 110: measure_temperature_c_humidity_per();
   791   0014E0  ECFE  F00B         	call	_measure_temperature_c_humidity_per	;wreg free
   792   0014E4  0004               	clrwdt		;# 
   793                           
   794                           ;LAB05.c: 112: send_temperature_RS232();
   795   0014E6  EC1E  F00B         	call	_send_temperature_RS232	;wreg free
   796                           
   797                           ;LAB05.c: 113: save_temperature_c_EEPROM();
   798   0014EA  EC96  F00C         	call	_save_temperature_c_EEPROM	;wreg free
   799                           
   800                           ;LAB05.c: 114: choose_scale_temperature_and_fill_buffers(buffer_LCD_row_1,buffer_LCD_row
      +                          _2);
   801   0014EE  0E60               	movlw	low main@buffer_LCD_row_1
   802   0014F0  6E46               	movwf	choose_scale_temperature_and_fill_buffers@buffer_LCD_row_1^0,c
   803   0014F2  0E71               	movlw	low main@buffer_LCD_row_2
   804   0014F4  6E47               	movwf	choose_scale_temperature_and_fill_buffers@buffer_LCD_row_2^0,c
   805   0014F6  EC3C  F004         	call	_choose_scale_temperature_and_fill_buffers	;wreg free
   806                           
   807                           ;LAB05.c: 115: show_temperature_c_RGB();
   808   0014FA  EC2E  F00A         	call	_show_temperature_c_RGB	;wreg free
   809                           
   810                           ; BSR set to: 0
   811                           ;LAB05.c: 116: show_temperature_LCD(buffer_LCD_row_1, buffer_LCD_row_2, Temp_n1, Hum_n1,
      +                           Scale_Temperature_n1);
   812   0014FE  0E60               	movlw	low main@buffer_LCD_row_1
   813   001500  6E06               	movwf	show_temperature_LCD@buffer_LCD_row_1^0,c
   814   001502  0E71               	movlw	low main@buffer_LCD_row_2
   815   001504  6E07               	movwf	show_temperature_LCD@buffer_LCD_row_2^0,c
   816   001506  C082  F008         	movff	main@Temp_n1,show_temperature_LCD@Temp_n1
   817   00150A  C083  F009         	movff	main@Hum_n1,show_temperature_LCD@Hum_n1
   818   00150E  C084  F00A         	movff	main@Scale_Temperature_n1,show_temperature_LCD@Scale_Temperature_n1
   819   001512  EC28  F009         	call	_show_temperature_LCD	;wreg free
   820                           
   821                           ;LAB05.c: 117: check_potentiometer_voltaje();
   822   001516  EC46  F00C         	call	_check_potentiometer_voltaje	;wreg free
   823                           
   824                           ;LAB05.c: 118: Enable_sample = 0;
   825   00151A  0E00               	movlw	0
   826   00151C  0100               	movlb	0	; () banked
   827   00151E  6F86               	movwf	_Enable_sample& (0+255),b
   828                           
   829                           ; BSR set to: 0
   830                           ;LAB05.c: 121: Temp_n1=Temp;
   831   001520  C088  F082         	movff	_Temp,main@Temp_n1
   832                           
   833                           ; BSR set to: 0
   834                           ;LAB05.c: 122: Hum_n1=Hum;
   835   001524  C087  F083         	movff	_Hum,main@Hum_n1
   836                           
   837                           ; BSR set to: 0
   838                           ;LAB05.c: 123: Scale_Temperature_n1=Scale_Temperature;
   839   001528  C085  F084         	movff	_Scale_Temperature,main@Scale_Temperature_n1
   840   00152C  D7D6               	goto	l2964
   841   00152E                     __end_of_main:
   842                           	callstack 0
   843                           
   844 ;; *************** function _welcome_operations *****************
   845 ;; Defined at:
   846 ;;		line 200 in file "/home/esteban/Esteban/UN/semester12/Microcontroladores/MPLAB_X_IDE/lab05_ADC.X/LAB05.c"
   847 ;; Parameters:    Size  Location     Type
   848 ;;		None
   849 ;; Auto vars:     Size  Location     Type
   850 ;;		None
   851 ;; Return value:  Size  Location     Type
   852 ;;                  1    wreg      void 
   853 ;; Registers used:
   854 ;;		wreg, status,2, status,0, tblptrl, tblptrh, tblptru, cstack
   855 ;; Tracked objects:
   856 ;;		On entry : 0/0
   857 ;;		On exit  : 0/0
   858 ;;		Unchanged: 0/0
   859 ;; Data sizes:     COMRAM   BANK0   BANK1   BANK2   BANK3   BANK4   BANK5   BANK6   BANK7
   860 ;;      Params:         0       0       0       0       0       0       0       0       0
   861 ;;      Locals:         0       0       0       0       0       0       0       0       0
   862 ;;      Temps:          2       0       0       0       0       0       0       0       0
   863 ;;      Totals:         2       0       0       0       0       0       0       0       0
   864 ;;Total ram usage:        2 bytes
   865 ;; Hardware stack levels used: 1
   866 ;; Hardware stack levels required when called: 5
   867 ;; This function calls:
   868 ;;		_BorraLCD
   869 ;;		_EEPROM_Read
   870 ;;		_EscribeLCD_n8
   871 ;;		_MensajeLCD_Var
   872 ;; This function is called by:
   873 ;;		_main
   874 ;; This function uses a non-reentrant model
   875 ;;
   876                           
   877                           	psect	text1
   878   001364                     __ptext1:
   879                           	callstack 0
   880   001364                     _welcome_operations:
   881                           	callstack 25
   882                           
   883                           ;LAB05.c: 204: if(TO==0){
   884                           
   885                           ; BSR set to: 0
   886                           ;incstack = 0
   887   001364  B6D0               	btfsc	4048,3,c	;volatile
   888   001366  D006               	goto	l2780
   889                           
   890                           ;LAB05.c: 205: TO=1;
   891   001368  86D0               	bsf	4048,3,c	;volatile
   892                           
   893                           ;LAB05.c: 206: MensajeLCD_Var("Failed DHT11");
   894   00136A  0E1C               	movlw	low STR_1
   895   00136C  6E06               	movwf	MensajeLCD_Var@a^0,c
   896   00136E  EC70  F009         	call	_MensajeLCD_Var	;wreg free
   897   001372  0003               	sleep		;# 
   898   001374                     l2780:
   899                           
   900                           ;LAB05.c: 208: };LAB05.c: 210: BorraLCD();
   901   001374  EC77  F00C         	call	_BorraLCD	;wreg free
   902                           
   903                           ;LAB05.c: 211: MensajeLCD_Var("Sensors");
   904   001378  0E69               	movlw	low STR_2
   905   00137A  6E06               	movwf	MensajeLCD_Var@a^0,c
   906   00137C  EC70  F009         	call	_MensajeLCD_Var	;wreg free
   907                           
   908                           ;LAB05.c: 212: MensajeLCD_Var("\nGod is good");
   909   001380  0E29               	movlw	low STR_3
   910   001382  6E06               	movwf	MensajeLCD_Var@a^0,c
   911   001384  EC70  F009         	call	_MensajeLCD_Var	;wreg free
   912                           
   913                           ;LAB05.c: 213: _delay((unsigned long)((1000)*(8000000/4000.0)));
   914   001388  0E0B               	movlw	11
   915   00138A  6E0F               	movwf	(??_welcome_operations+1)^0,c
   916   00138C  0E26               	movlw	38
   917   00138E  6E0E               	movwf	??_welcome_operations^0,c
   918   001390  0E5E               	movlw	94
   919   001392                     u2577:
   920   001392  2EE8               	decfsz	wreg,f,c
   921   001394  D7FE               	bra	u2577
   922   001396  2E0E               	decfsz	??_welcome_operations^0,f,c
   923   001398  D7FC               	bra	u2577
   924   00139A  2E0F               	decfsz	(??_welcome_operations+1)^0,f,c
   925   00139C  D7FA               	bra	u2577
   926                           
   927                           ;LAB05.c: 216: BorraLCD();
   928   00139E  EC77  F00C         	call	_BorraLCD	;wreg free
   929                           
   930                           ;LAB05.c: 217: MensajeLCD_Var("Last Temperature");
   931   0013A2  0E0B               	movlw	low STR_4
   932   0013A4  6E06               	movwf	MensajeLCD_Var@a^0,c
   933   0013A6  EC70  F009         	call	_MensajeLCD_Var	;wreg free
   934                           
   935                           ;LAB05.c: 218: MensajeLCD_Var("\nT: ");
   936   0013AA  0E71               	movlw	low STR_5
   937   0013AC  6E06               	movwf	MensajeLCD_Var@a^0,c
   938   0013AE  EC70  F009         	call	_MensajeLCD_Var	;wreg free
   939                           
   940                           ;LAB05.c: 219: EscribeLCD_n8(EEPROM_Read(0),2);
   941   0013B2  0E02               	movlw	2
   942   0013B4  6E09               	movwf	EscribeLCD_n8@b^0,c
   943   0013B6  0E00               	movlw	0
   944   0013B8  EC81  F00C         	call	_EEPROM_Read
   945   0013BC  EC34  F007         	call	_EscribeLCD_n8
   946                           
   947                           ;LAB05.c: 220: MensajeLCD_Var(" C");
   948   0013C0  0E56               	movlw	low (STR_7+5)
   949   0013C2  6E06               	movwf	MensajeLCD_Var@a^0,c
   950   0013C4  EC70  F009         	call	_MensajeLCD_Var	;wreg free
   951                           
   952                           ;LAB05.c: 221: _delay((unsigned long)((1000)*(8000000/4000.0)));
   953   0013C8  0E0B               	movlw	11
   954   0013CA  6E0F               	movwf	(??_welcome_operations+1)^0,c
   955   0013CC  0E26               	movlw	38
   956   0013CE  6E0E               	movwf	??_welcome_operations^0,c
   957   0013D0  0E5E               	movlw	94
   958   0013D2                     u2587:
   959   0013D2  2EE8               	decfsz	wreg,f,c
   960   0013D4  D7FE               	bra	u2587
   961   0013D6  2E0E               	decfsz	??_welcome_operations^0,f,c
   962   0013D8  D7FC               	bra	u2587
   963   0013DA  2E0F               	decfsz	(??_welcome_operations+1)^0,f,c
   964   0013DC  D7FA               	bra	u2587
   965   0013DE  0012               	return		;funcret
   966   0013E0                     __end_of_welcome_operations:
   967                           	callstack 0
   968                           
   969 ;; *************** function _MensajeLCD_Var *****************
   970 ;; Defined at:
   971 ;;		line 232 in file "/home/esteban/Esteban/UN/semester12/Microcontroladores/MPLAB_X_IDE/lab05_ADC.X/LibLCDXC8.h"
   972 ;; Parameters:    Size  Location     Type
   973 ;;  a               1    5[COMRAM] PTR unsigned char 
   974 ;;		 -> STR_6(3), STR_5(5), STR_4(17), STR_3(13), 
   975 ;;		 -> STR_2(8), STR_1(13), 
   976 ;; Auto vars:     Size  Location     Type
   977 ;;  counter         1    7[COMRAM] unsigned char 
   978 ;; Return value:  Size  Location     Type
   979 ;;                  1    wreg      void 
   980 ;; Registers used:
   981 ;;		wreg, status,2, status,0, tblptrl, tblptrh, tblptru, cstack
   982 ;; Tracked objects:
   983 ;;		On entry : 0/0
   984 ;;		On exit  : 0/0
   985 ;;		Unchanged: 0/0
   986 ;; Data sizes:     COMRAM   BANK0   BANK1   BANK2   BANK3   BANK4   BANK5   BANK6   BANK7
   987 ;;      Params:         1       0       0       0       0       0       0       0       0
   988 ;;      Locals:         1       0       0       0       0       0       0       0       0
   989 ;;      Temps:          1       0       0       0       0       0       0       0       0
   990 ;;      Totals:         3       0       0       0       0       0       0       0       0
   991 ;;Total ram usage:        3 bytes
   992 ;; Hardware stack levels used: 1
   993 ;; Hardware stack levels required when called: 4
   994 ;; This function calls:
   995 ;;		_BorraLCD
   996 ;;		_DireccionaLCD
   997 ;;		_EscribeLCD_c
   998 ;; This function is called by:
   999 ;;		_welcome_operations
  1000 ;; This function uses a non-reentrant model
  1001 ;;
  1002                           
  1003                           	psect	text2
  1004   0012E0                     __ptext2:
  1005                           	callstack 0
  1006   0012E0                     _MensajeLCD_Var:
  1007                           	callstack 25
  1008                           
  1009                           ;LibLCDXC8.h: 237: unsigned char counter=0;
  1010                           
  1011                           ;incstack = 0
  1012   0012E0  0E00               	movlw	0
  1013   0012E2  6E08               	movwf	MensajeLCD_Var@counter^0,c
  1014                           
  1015                           ;LibLCDXC8.h: 238: while(a[counter]!='\0' && counter<=255){
  1016   0012E4  D032               	goto	l2366
  1017   0012E6                     l2348:
  1018                           
  1019                           ;LibLCDXC8.h: 240: if(a[counter]=='\n'){
  1020   0012E6  5006               	movf	MensajeLCD_Var@a^0,w,c
  1021   0012E8  2408               	addwf	MensajeLCD_Var@counter^0,w,c
  1022   0012EA  6E07               	movwf	??_MensajeLCD_Var^0,c
  1023   0012EC  C007  FFF6         	movff	??_MensajeLCD_Var,tblptrl
  1024   0012F0                     	if	1	;There is more than 1 active tblptr byte
  1025   0012F0  0E08               	movlw	high __smallconst
  1026   0012F2  6EF7               	movwf	tblptrh,c
  1027   0012F4                     	endif
  1028   0012F4                     	if	0	;tblptru may be non-zero
  1029   0012F4                     	endif
  1030   0012F4                     	if	0	;tblptru may be non-zero
  1031   0012F4                     	endif
  1032   0012F4  0008               	tblrd		*
  1033   0012F6  50F5               	movf	tablat,w,c
  1034   0012F8  0A0A               	xorlw	10
  1035   0012FA  A4D8               	btfss	status,2,c
  1036   0012FC  D004               	goto	l2354
  1037                           
  1038                           ;LibLCDXC8.h: 241: DireccionaLCD(0xC0);
  1039   0012FE  0EC0               	movlw	192
  1040   001300  EC6C  F00C         	call	_DireccionaLCD
  1041                           
  1042                           ;LibLCDXC8.h: 242: counter++;
  1043   001304  2A08               	incf	MensajeLCD_Var@counter^0,f,c
  1044   001306                     l2354:
  1045                           
  1046                           ;LibLCDXC8.h: 243: };LibLCDXC8.h: 245: EscribeLCD_c(a[counter]);
  1047   001306  5006               	movf	MensajeLCD_Var@a^0,w,c
  1048   001308  2408               	addwf	MensajeLCD_Var@counter^0,w,c
  1049   00130A  6E07               	movwf	??_MensajeLCD_Var^0,c
  1050   00130C  C007  FFF6         	movff	??_MensajeLCD_Var,tblptrl
  1051   001310                     	if	1	;There is more than 1 active tblptr byte
  1052   001310  0E08               	movlw	high __smallconst
  1053   001312  6EF7               	movwf	tblptrh,c
  1054   001314                     	endif
  1055   001314                     	if	0	;tblptru may be non-zero
  1056   001314                     	endif
  1057   001314                     	if	0	;tblptru may be non-zero
  1058   001314                     	endif
  1059   001314  0008               	tblrd		*
  1060   001316  50F5               	movf	tablat,w,c
  1061   001318  EC61  F00C         	call	_EscribeLCD_c
  1062                           
  1063                           ;LibLCDXC8.h: 247: if((counter+1)%32==0){
  1064   00131C  C008  F007         	movff	MensajeLCD_Var@counter,??_MensajeLCD_Var
  1065   001320  0E01               	movlw	1
  1066   001322  2607               	addwf	??_MensajeLCD_Var^0,f,c
  1067   001324  0E1F               	movlw	31
  1068   001326  1607               	andwf	??_MensajeLCD_Var^0,f,c
  1069   001328  A4D8               	btfss	status,2,c
  1070   00132A  D003               	goto	l2360
  1071                           
  1072                           ;LibLCDXC8.h: 248: BorraLCD();
  1073   00132C  EC77  F00C         	call	_BorraLCD	;wreg free
  1074                           
  1075                           ;LibLCDXC8.h: 249: }
  1076   001330  D00B               	goto	l2364
  1077   001332                     l2360:
  1078                           
  1079                           ;LibLCDXC8.h: 250: else if((counter+1)%16==0){
  1080   001332  C008  F007         	movff	MensajeLCD_Var@counter,??_MensajeLCD_Var
  1081   001336  0E01               	movlw	1
  1082   001338  2607               	addwf	??_MensajeLCD_Var^0,f,c
  1083   00133A  0E0F               	movlw	15
  1084   00133C  1607               	andwf	??_MensajeLCD_Var^0,f,c
  1085   00133E  A4D8               	btfss	status,2,c
  1086   001340  D003               	goto	l2364
  1087                           
  1088                           ;LibLCDXC8.h: 251: DireccionaLCD(0xC0);
  1089   001342  0EC0               	movlw	192
  1090   001344  EC6C  F00C         	call	_DireccionaLCD
  1091   001348                     l2364:
  1092                           
  1093                           ;LibLCDXC8.h: 252: };LibLCDXC8.h: 254: counter++;
  1094   001348  2A08               	incf	MensajeLCD_Var@counter^0,f,c
  1095   00134A                     l2366:
  1096   00134A  5006               	movf	MensajeLCD_Var@a^0,w,c
  1097   00134C  2408               	addwf	MensajeLCD_Var@counter^0,w,c
  1098   00134E  6E07               	movwf	??_MensajeLCD_Var^0,c
  1099   001350  C007  FFF6         	movff	??_MensajeLCD_Var,tblptrl
  1100   001354                     	if	1	;There is more than 1 active tblptr byte
  1101   001354  0E08               	movlw	high __smallconst
  1102   001356  6EF7               	movwf	tblptrh,c
  1103   001358                     	endif
  1104   001358                     	if	0	;tblptru may be non-zero
  1105   001358                     	endif
  1106   001358                     	if	0	;tblptru may be non-zero
  1107   001358                     	endif
  1108   001358  0008               	tblrd		*
  1109   00135A  50F5               	movf	tablat,w,c
  1110   00135C  0900               	iorlw	0
  1111   00135E  B4D8               	btfsc	status,2,c
  1112   001360  0012               	return	
  1113   001362  D7C1               	goto	l2348
  1114   001364                     __end_of_MensajeLCD_Var:
  1115                           	callstack 0
  1116                           
  1117 ;; *************** function _EscribeLCD_n8 *****************
  1118 ;; Defined at:
  1119 ;;		line 145 in file "/home/esteban/Esteban/UN/semester12/Microcontroladores/MPLAB_X_IDE/lab05_ADC.X/LibLCDXC8.h"
  1120 ;; Parameters:    Size  Location     Type
  1121 ;;  a               1    wreg     unsigned char 
  1122 ;;  b               1    8[COMRAM] unsigned char 
  1123 ;; Auto vars:     Size  Location     Type
  1124 ;;  a               1   12[COMRAM] unsigned char 
  1125 ;;  unidad          1   11[COMRAM] unsigned char 
  1126 ;;  decena          1   10[COMRAM] unsigned char 
  1127 ;;  centena         1    9[COMRAM] unsigned char 
  1128 ;; Return value:  Size  Location     Type
  1129 ;;                  1    wreg      void 
  1130 ;; Registers used:
  1131 ;;		wreg, status,2, status,0, cstack
  1132 ;; Tracked objects:
  1133 ;;		On entry : 0/0
  1134 ;;		On exit  : 0/0
  1135 ;;		Unchanged: 0/0
  1136 ;; Data sizes:     COMRAM   BANK0   BANK1   BANK2   BANK3   BANK4   BANK5   BANK6   BANK7
  1137 ;;      Params:         1       0       0       0       0       0       0       0       0
  1138 ;;      Locals:         4       0       0       0       0       0       0       0       0
  1139 ;;      Temps:          0       0       0       0       0       0       0       0       0
  1140 ;;      Totals:         5       0       0       0       0       0       0       0       0
  1141 ;;Total ram usage:        5 bytes
  1142 ;; Hardware stack levels used: 1
  1143 ;; Hardware stack levels required when called: 3
  1144 ;; This function calls:
  1145 ;;		_EnviaDato
  1146 ;;		_HabilitaLCD
  1147 ;;		_RetardoLCD
  1148 ;;		___lbdiv
  1149 ;;		___lbmod
  1150 ;; This function is called by:
  1151 ;;		_welcome_operations
  1152 ;; This function uses a non-reentrant model
  1153 ;;
  1154                           
  1155                           	psect	text3
  1156   000E68                     __ptext3:
  1157                           	callstack 0
  1158   000E68                     _EscribeLCD_n8:
  1159                           	callstack 26
  1160                           
  1161                           ;incstack = 0
  1162                           ;EscribeLCD_n8@a stored from wreg
  1163   000E68  6E0D               	movwf	EscribeLCD_n8@a^0,c
  1164                           
  1165                           ;LibLCDXC8.h: 150: unsigned char centena,decena,unidad;;LibLCDXC8.h: 151: LATD0=1;
  1166   000E6A  808C               	bsf	3980,0,c	;volatile
  1167                           
  1168                           ;LibLCDXC8.h: 152: switch(b){
  1169   000E6C  D065               	goto	l2344
  1170   000E6E                     l2312:
  1171   000E6E  0E0A               	movlw	10
  1172   000E70  6E01               	movwf	___lbmod@divisor^0,c
  1173   000E72  500D               	movf	EscribeLCD_n8@a^0,w,c
  1174   000E74  ECD6  F00B         	call	___lbmod
  1175   000E78  6E0C               	movwf	EscribeLCD_n8@unidad^0,c
  1176                           
  1177                           ;LibLCDXC8.h: 154: EnviaDato(unidad+48);
  1178   000E7A  500C               	movf	EscribeLCD_n8@unidad^0,w,c
  1179   000E7C  0F30               	addlw	48
  1180   000E7E  EC46  F00B         	call	_EnviaDato
  1181                           
  1182                           ;LibLCDXC8.h: 155: HabilitaLCD();
  1183   000E82  EC89  F00C         	call	_HabilitaLCD	;wreg free
  1184                           
  1185                           ;LibLCDXC8.h: 156: RetardoLCD(4);
  1186   000E86  0E04               	movlw	4
  1187   000E88  EC97  F00A         	call	_RetardoLCD
  1188                           
  1189                           ;LibLCDXC8.h: 157: break;
  1190   000E8C  0012               	return	
  1191   000E8E                     l2318:
  1192   000E8E  0E0A               	movlw	10
  1193   000E90  6E05               	movwf	___lbdiv@divisor^0,c
  1194   000E92  0E64               	movlw	100
  1195   000E94  6E01               	movwf	___lbmod@divisor^0,c
  1196   000E96  500D               	movf	EscribeLCD_n8@a^0,w,c
  1197   000E98  ECD6  F00B         	call	___lbmod
  1198   000E9C  EC8A  F00B         	call	___lbdiv
  1199   000EA0  6E0B               	movwf	EscribeLCD_n8@decena^0,c
  1200                           
  1201                           ;LibLCDXC8.h: 159: unidad=a%10;
  1202   000EA2  0E0A               	movlw	10
  1203   000EA4  6E01               	movwf	___lbmod@divisor^0,c
  1204   000EA6  500D               	movf	EscribeLCD_n8@a^0,w,c
  1205   000EA8  ECD6  F00B         	call	___lbmod
  1206   000EAC  6E0C               	movwf	EscribeLCD_n8@unidad^0,c
  1207                           
  1208                           ;LibLCDXC8.h: 160: EnviaDato(decena+48);
  1209   000EAE  500B               	movf	EscribeLCD_n8@decena^0,w,c
  1210   000EB0  0F30               	addlw	48
  1211   000EB2  EC46  F00B         	call	_EnviaDato
  1212                           
  1213                           ;LibLCDXC8.h: 161: HabilitaLCD();
  1214   000EB6  EC89  F00C         	call	_HabilitaLCD	;wreg free
  1215                           
  1216                           ;LibLCDXC8.h: 162: RetardoLCD(4);
  1217   000EBA  0E04               	movlw	4
  1218   000EBC  EC97  F00A         	call	_RetardoLCD
  1219                           
  1220                           ;LibLCDXC8.h: 163: EnviaDato(unidad+48);
  1221   000EC0  500C               	movf	EscribeLCD_n8@unidad^0,w,c
  1222   000EC2  0F30               	addlw	48
  1223   000EC4  EC46  F00B         	call	_EnviaDato
  1224                           
  1225                           ;LibLCDXC8.h: 164: HabilitaLCD();
  1226   000EC8  EC89  F00C         	call	_HabilitaLCD	;wreg free
  1227                           
  1228                           ;LibLCDXC8.h: 165: RetardoLCD(4);
  1229   000ECC  0E04               	movlw	4
  1230   000ECE  EC97  F00A         	call	_RetardoLCD
  1231                           
  1232                           ;LibLCDXC8.h: 166: break;
  1233   000ED2  0012               	return	
  1234   000ED4                     l2328:
  1235   000ED4  0E64               	movlw	100
  1236   000ED6  6E05               	movwf	___lbdiv@divisor^0,c
  1237   000ED8  500D               	movf	EscribeLCD_n8@a^0,w,c
  1238   000EDA  EC8A  F00B         	call	___lbdiv
  1239   000EDE  6E0A               	movwf	EscribeLCD_n8@centena^0,c
  1240                           
  1241                           ;LibLCDXC8.h: 168: decena=(a%100)/10;
  1242   000EE0  0E0A               	movlw	10
  1243   000EE2  6E05               	movwf	___lbdiv@divisor^0,c
  1244   000EE4  0E64               	movlw	100
  1245   000EE6  6E01               	movwf	___lbmod@divisor^0,c
  1246   000EE8  500D               	movf	EscribeLCD_n8@a^0,w,c
  1247   000EEA  ECD6  F00B         	call	___lbmod
  1248   000EEE  EC8A  F00B         	call	___lbdiv
  1249   000EF2  6E0B               	movwf	EscribeLCD_n8@decena^0,c
  1250                           
  1251                           ;LibLCDXC8.h: 169: unidad=a%10;
  1252   000EF4  0E0A               	movlw	10
  1253   000EF6  6E01               	movwf	___lbmod@divisor^0,c
  1254   000EF8  500D               	movf	EscribeLCD_n8@a^0,w,c
  1255   000EFA  ECD6  F00B         	call	___lbmod
  1256   000EFE  6E0C               	movwf	EscribeLCD_n8@unidad^0,c
  1257                           
  1258                           ;LibLCDXC8.h: 170: EnviaDato(centena+48);
  1259   000F00  500A               	movf	EscribeLCD_n8@centena^0,w,c
  1260   000F02  0F30               	addlw	48
  1261   000F04  EC46  F00B         	call	_EnviaDato
  1262                           
  1263                           ;LibLCDXC8.h: 171: HabilitaLCD();
  1264   000F08  EC89  F00C         	call	_HabilitaLCD	;wreg free
  1265                           
  1266                           ;LibLCDXC8.h: 172: RetardoLCD(4);
  1267   000F0C  0E04               	movlw	4
  1268   000F0E  EC97  F00A         	call	_RetardoLCD
  1269                           
  1270                           ;LibLCDXC8.h: 173: EnviaDato(decena+48);
  1271   000F12  500B               	movf	EscribeLCD_n8@decena^0,w,c
  1272   000F14  0F30               	addlw	48
  1273   000F16  EC46  F00B         	call	_EnviaDato
  1274                           
  1275                           ;LibLCDXC8.h: 174: HabilitaLCD();
  1276   000F1A  EC89  F00C         	call	_HabilitaLCD	;wreg free
  1277                           
  1278                           ;LibLCDXC8.h: 175: RetardoLCD(4);
  1279   000F1E  0E04               	movlw	4
  1280   000F20  EC97  F00A         	call	_RetardoLCD
  1281                           
  1282                           ;LibLCDXC8.h: 176: EnviaDato(unidad+48);
  1283   000F24  500C               	movf	EscribeLCD_n8@unidad^0,w,c
  1284   000F26  0F30               	addlw	48
  1285   000F28  EC46  F00B         	call	_EnviaDato
  1286                           
  1287                           ;LibLCDXC8.h: 177: HabilitaLCD();
  1288   000F2C  EC89  F00C         	call	_HabilitaLCD	;wreg free
  1289                           
  1290                           ;LibLCDXC8.h: 178: RetardoLCD(4);
  1291   000F30  0E04               	movlw	4
  1292   000F32  EC97  F00A         	call	_RetardoLCD
  1293                           
  1294                           ;LibLCDXC8.h: 179: break;
  1295   000F36  0012               	return	
  1296   000F38                     l2344:
  1297   000F38  5009               	movf	EscribeLCD_n8@b^0,w,c
  1298                           
  1299                           ; Switch size 1, requested type "simple"
  1300                           ; Number of cases is 3, Range of values is 1 to 3
  1301                           ; switch strategies available:
  1302                           ; Name         Instructions Cycles
  1303                           ; simple_byte           10     6 (average)
  1304                           ;	Chosen strategy is simple_byte
  1305   000F3A  0A01               	xorlw	1	; case 1
  1306   000F3C  B4D8               	btfsc	status,2,c
  1307   000F3E  D797               	goto	l2312
  1308   000F40  0A03               	xorlw	3	; case 2
  1309   000F42  B4D8               	btfsc	status,2,c
  1310   000F44  D7A4               	goto	l2318
  1311   000F46  0A01               	xorlw	1	; case 3
  1312   000F48  A4D8               	btfss	status,2,c
  1313   000F4A  0012               	return	
  1314   000F4C  D7C3               	goto	l2328
  1315   000F4E                     __end_of_EscribeLCD_n8:
  1316                           	callstack 0
  1317                           
  1318 ;; *************** function ___lbmod *****************
  1319 ;; Defined at:
  1320 ;;		line 4 in file "/opt/microchip/xc8/v2.41/pic/sources/c90/common/lbmod.c"
  1321 ;; Parameters:    Size  Location     Type
  1322 ;;  dividend        1    wreg     unsigned char 
  1323 ;;  divisor         1    0[COMRAM] unsigned char 
  1324 ;; Auto vars:     Size  Location     Type
  1325 ;;  dividend        1    1[COMRAM] unsigned char 
  1326 ;;  rem             1    3[COMRAM] unsigned char 
  1327 ;;  counter         1    2[COMRAM] unsigned char 
  1328 ;; Return value:  Size  Location     Type
  1329 ;;                  1    wreg      unsigned char 
  1330 ;; Registers used:
  1331 ;;		wreg, status,2, status,0
  1332 ;; Tracked objects:
  1333 ;;		On entry : 0/0
  1334 ;;		On exit  : 0/0
  1335 ;;		Unchanged: 0/0
  1336 ;; Data sizes:     COMRAM   BANK0   BANK1   BANK2   BANK3   BANK4   BANK5   BANK6   BANK7
  1337 ;;      Params:         1       0       0       0       0       0       0       0       0
  1338 ;;      Locals:         3       0       0       0       0       0       0       0       0
  1339 ;;      Temps:          0       0       0       0       0       0       0       0       0
  1340 ;;      Totals:         4       0       0       0       0       0       0       0       0
  1341 ;;Total ram usage:        4 bytes
  1342 ;; Hardware stack levels used: 1
  1343 ;; Hardware stack levels required when called: 1
  1344 ;; This function calls:
  1345 ;;		Nothing
  1346 ;; This function is called by:
  1347 ;;		_EscribeLCD_n8
  1348 ;; This function uses a non-reentrant model
  1349 ;;
  1350                           
  1351                           	psect	text4
  1352   0017AC                     __ptext4:
  1353                           	callstack 0
  1354   0017AC                     ___lbmod:
  1355                           	callstack 27
  1356                           
  1357                           ;incstack = 0
  1358                           ;___lbmod@dividend stored from wreg
  1359   0017AC  6E02               	movwf	___lbmod@dividend^0,c
  1360   0017AE  0E08               	movlw	8
  1361   0017B0  6E03               	movwf	___lbmod@counter^0,c
  1362   0017B2  0E00               	movlw	0
  1363   0017B4  6E04               	movwf	___lbmod@rem^0,c
  1364   0017B6                     l2200:
  1365   0017B6  90D8               	bcf	status,0,c
  1366   0017B8  3402               	rlcf	___lbmod@dividend^0,w,c
  1367   0017BA  3404               	rlcf	___lbmod@rem^0,w,c
  1368   0017BC  6E04               	movwf	___lbmod@rem^0,c
  1369   0017BE  90D8               	bcf	status,0,c
  1370   0017C0  3602               	rlcf	___lbmod@dividend^0,f,c
  1371   0017C2  5001               	movf	___lbmod@divisor^0,w,c
  1372   0017C4  5C04               	subwf	___lbmod@rem^0,w,c
  1373   0017C6  A0D8               	btfss	status,0,c
  1374   0017C8  D002               	goto	l2208
  1375   0017CA  5001               	movf	___lbmod@divisor^0,w,c
  1376   0017CC  5E04               	subwf	___lbmod@rem^0,f,c
  1377   0017CE                     l2208:
  1378   0017CE  2E03               	decfsz	___lbmod@counter^0,f,c
  1379   0017D0  D7F2               	goto	l2200
  1380   0017D2  5004               	movf	___lbmod@rem^0,w,c
  1381   0017D4  0012               	return		;funcret
  1382   0017D6                     __end_of___lbmod:
  1383                           	callstack 0
  1384                           
  1385 ;; *************** function ___lbdiv *****************
  1386 ;; Defined at:
  1387 ;;		line 4 in file "/opt/microchip/xc8/v2.41/pic/sources/c90/common/lbdiv.c"
  1388 ;; Parameters:    Size  Location     Type
  1389 ;;  dividend        1    wreg     unsigned char 
  1390 ;;  divisor         1    4[COMRAM] unsigned char 
  1391 ;; Auto vars:     Size  Location     Type
  1392 ;;  dividend        1    5[COMRAM] unsigned char 
  1393 ;;  quotient        1    7[COMRAM] unsigned char 
  1394 ;;  counter         1    6[COMRAM] unsigned char 
  1395 ;; Return value:  Size  Location     Type
  1396 ;;                  1    wreg      unsigned char 
  1397 ;; Registers used:
  1398 ;;		wreg, status,2, status,0
  1399 ;; Tracked objects:
  1400 ;;		On entry : 0/0
  1401 ;;		On exit  : 0/0
  1402 ;;		Unchanged: 0/0
  1403 ;; Data sizes:     COMRAM   BANK0   BANK1   BANK2   BANK3   BANK4   BANK5   BANK6   BANK7
  1404 ;;      Params:         1       0       0       0       0       0       0       0       0
  1405 ;;      Locals:         3       0       0       0       0       0       0       0       0
  1406 ;;      Temps:          0       0       0       0       0       0       0       0       0
  1407 ;;      Totals:         4       0       0       0       0       0       0       0       0
  1408 ;;Total ram usage:        4 bytes
  1409 ;; Hardware stack levels used: 1
  1410 ;; Hardware stack levels required when called: 1
  1411 ;; This function calls:
  1412 ;;		Nothing
  1413 ;; This function is called by:
  1414 ;;		_EscribeLCD_n8
  1415 ;; This function uses a non-reentrant model
  1416 ;;
  1417                           
  1418                           	psect	text5
  1419   001714                     __ptext5:
  1420                           	callstack 0
  1421   001714                     ___lbdiv:
  1422                           	callstack 27
  1423                           
  1424                           ;incstack = 0
  1425                           ;___lbdiv@dividend stored from wreg
  1426   001714  6E06               	movwf	___lbdiv@dividend^0,c
  1427   001716  0E00               	movlw	0
  1428   001718  6E08               	movwf	___lbdiv@quotient^0,c
  1429   00171A  5005               	movf	___lbdiv@divisor^0,w,c
  1430   00171C  B4D8               	btfsc	status,2,c
  1431   00171E  D015               	goto	l2194
  1432   001720  0E01               	movlw	1
  1433   001722  6E07               	movwf	___lbdiv@counter^0,c
  1434   001724  D003               	goto	l2182
  1435   001726                     l2178:
  1436   001726  90D8               	bcf	status,0,c
  1437   001728  3605               	rlcf	___lbdiv@divisor^0,f,c
  1438   00172A  2A07               	incf	___lbdiv@counter^0,f,c
  1439   00172C                     l2182:
  1440   00172C  AE05               	btfss	___lbdiv@divisor^0,7,c
  1441   00172E  D7FB               	goto	l2178
  1442   001730                     u1400:
  1443   001730  90D8               	bcf	status,0,c
  1444   001732  3608               	rlcf	___lbdiv@quotient^0,f,c
  1445   001734  5005               	movf	___lbdiv@divisor^0,w,c
  1446   001736  5C06               	subwf	___lbdiv@dividend^0,w,c
  1447   001738  A0D8               	btfss	status,0,c
  1448   00173A  D003               	goto	l2190
  1449   00173C  5005               	movf	___lbdiv@divisor^0,w,c
  1450   00173E  5E06               	subwf	___lbdiv@dividend^0,f,c
  1451   001740  8008               	bsf	___lbdiv@quotient^0,0,c
  1452   001742                     l2190:
  1453   001742  90D8               	bcf	status,0,c
  1454   001744  3205               	rrcf	___lbdiv@divisor^0,f,c
  1455   001746  2E07               	decfsz	___lbdiv@counter^0,f,c
  1456   001748  D7F3               	goto	u1400
  1457   00174A                     l2194:
  1458   00174A  5008               	movf	___lbdiv@quotient^0,w,c
  1459   00174C  0012               	return		;funcret
  1460   00174E                     __end_of___lbdiv:
  1461                           	callstack 0
  1462                           
  1463 ;; *************** function _EEPROM_Read *****************
  1464 ;; Defined at:
  1465 ;;		line 482 in file "/home/esteban/Esteban/UN/semester12/Microcontroladores/MPLAB_X_IDE/lab05_ADC.X/LAB05.c"
  1466 ;; Parameters:    Size  Location     Type
  1467 ;;  address         1    wreg     unsigned char 
  1468 ;; Auto vars:     Size  Location     Type
  1469 ;;  address         1    0[COMRAM] unsigned char 
  1470 ;; Return value:  Size  Location     Type
  1471 ;;                  1    wreg      unsigned char 
  1472 ;; Registers used:
  1473 ;;		wreg, status,2
  1474 ;; Tracked objects:
  1475 ;;		On entry : 0/0
  1476 ;;		On exit  : 0/0
  1477 ;;		Unchanged: 0/0
  1478 ;; Data sizes:     COMRAM   BANK0   BANK1   BANK2   BANK3   BANK4   BANK5   BANK6   BANK7
  1479 ;;      Params:         0       0       0       0       0       0       0       0       0
  1480 ;;      Locals:         1       0       0       0       0       0       0       0       0
  1481 ;;      Temps:          0       0       0       0       0       0       0       0       0
  1482 ;;      Totals:         1       0       0       0       0       0       0       0       0
  1483 ;;Total ram usage:        1 bytes
  1484 ;; Hardware stack levels used: 1
  1485 ;; Hardware stack levels required when called: 1
  1486 ;; This function calls:
  1487 ;;		Nothing
  1488 ;; This function is called by:
  1489 ;;		_welcome_operations
  1490 ;; This function uses a non-reentrant model
  1491 ;;
  1492                           
  1493                           	psect	text6
  1494   001902                     __ptext6:
  1495                           	callstack 0
  1496   001902                     _EEPROM_Read:
  1497                           	callstack 28
  1498                           
  1499                           ;incstack = 0
  1500                           ;EEPROM_Read@address stored from wreg
  1501   001902  6E01               	movwf	EEPROM_Read@address^0,c
  1502                           
  1503                           ;LAB05.c: 483: EEADR=address;
  1504   001904  C001  FFA9         	movff	EEPROM_Read@address,4009	;volatile
  1505                           
  1506                           ;LAB05.c: 484: WREN=0;
  1507   001908  94A6               	bcf	4006,2,c	;volsfr
  1508                           
  1509                           ;LAB05.c: 485: EEPGD=0;
  1510   00190A  9EA6               	bcf	4006,7,c	;volsfr
  1511                           
  1512                           ;LAB05.c: 486: RD=1;
  1513   00190C  80A6               	bsf	4006,0,c	;volsfr
  1514                           
  1515                           ;LAB05.c: 488: return EEDATA;
  1516   00190E  50A8               	movf	168,w,c	;volatile
  1517   001910  0012               	return		;funcret
  1518   001912                     __end_of_EEPROM_Read:
  1519                           	callstack 0
  1520                           
  1521 ;; *************** function _show_temperature_c_RGB *****************
  1522 ;; Defined at:
  1523 ;;		line 293 in file "/home/esteban/Esteban/UN/semester12/Microcontroladores/MPLAB_X_IDE/lab05_ADC.X/LAB05.c"
  1524 ;; Parameters:    Size  Location     Type
  1525 ;;		None
  1526 ;; Auto vars:     Size  Location     Type
  1527 ;;		None
  1528 ;; Return value:  Size  Location     Type
  1529 ;;                  1    wreg      void 
  1530 ;; Registers used:
  1531 ;;		wreg, status,2, status,0
  1532 ;; Tracked objects:
  1533 ;;		On entry : 0/0
  1534 ;;		On exit  : 3F/0
  1535 ;;		Unchanged: 0/0
  1536 ;; Data sizes:     COMRAM   BANK0   BANK1   BANK2   BANK3   BANK4   BANK5   BANK6   BANK7
  1537 ;;      Params:         0       0       0       0       0       0       0       0       0
  1538 ;;      Locals:         0       0       0       0       0       0       0       0       0
  1539 ;;      Temps:          0       0       0       0       0       0       0       0       0
  1540 ;;      Totals:         0       0       0       0       0       0       0       0       0
  1541 ;;Total ram usage:        0 bytes
  1542 ;; Hardware stack levels used: 1
  1543 ;; Hardware stack levels required when called: 1
  1544 ;; This function calls:
  1545 ;;		Nothing
  1546 ;; This function is called by:
  1547 ;;		_main
  1548 ;; This function uses a non-reentrant model
  1549 ;;
  1550                           
  1551                           	psect	text7
  1552   00145C                     __ptext7:
  1553                           	callstack 0
  1554   00145C                     _show_temperature_c_RGB:
  1555                           	callstack 29
  1556                           
  1557                           ;LAB05.c: 294: if(Temp<22){
  1558                           
  1559                           ;incstack = 0
  1560   00145C  0E16               	movlw	22
  1561   00145E  0100               	movlb	0	; () banked
  1562   001460  6188               	cpfslt	_Temp& (0+255),b
  1563   001462  D004               	goto	l2884
  1564                           
  1565                           ; BSR set to: 0
  1566                           ;LAB05.c: 296: LATE0=1;
  1567   001464  808D               	bsf	3981,0,c	;volatile
  1568                           
  1569                           ;LAB05.c: 297: LATE2=1;
  1570   001466  848D               	bsf	3981,2,c	;volatile
  1571                           
  1572                           ;LAB05.c: 298: LATE1=1;
  1573   001468  828D               	bsf	3981,1,c	;volatile
  1574                           
  1575                           ;LAB05.c: 299: }
  1576   00146A  0012               	return	
  1577   00146C                     l2884:
  1578                           
  1579                           ; BSR set to: 0
  1580                           ;LAB05.c: 300: else if(Temp<25) {
  1581   00146C  0E19               	movlw	25
  1582   00146E  6188               	cpfslt	_Temp& (0+255),b
  1583   001470  D004               	goto	l2888
  1584                           
  1585                           ; BSR set to: 0
  1586                           ;LAB05.c: 302: LATE0=0;
  1587   001472  908D               	bcf	3981,0,c	;volatile
  1588                           
  1589                           ;LAB05.c: 303: LATE2=1;
  1590   001474  848D               	bsf	3981,2,c	;volatile
  1591                           
  1592                           ;LAB05.c: 304: LATE1=0;
  1593   001476  928D               	bcf	3981,1,c	;volatile
  1594                           
  1595                           ;LAB05.c: 305: }
  1596   001478  0012               	return	
  1597   00147A                     l2888:
  1598                           
  1599                           ; BSR set to: 0
  1600                           ;LAB05.c: 306: else if(Temp<28){
  1601   00147A  0E1C               	movlw	28
  1602   00147C  6188               	cpfslt	_Temp& (0+255),b
  1603   00147E  D004               	goto	l2892
  1604                           
  1605                           ; BSR set to: 0
  1606                           ;LAB05.c: 308: LATE0=1;
  1607   001480  808D               	bsf	3981,0,c	;volatile
  1608                           
  1609                           ;LAB05.c: 309: LATE2=1;
  1610   001482  848D               	bsf	3981,2,c	;volatile
  1611                           
  1612                           ;LAB05.c: 310: LATE1=0;
  1613   001484  928D               	bcf	3981,1,c	;volatile
  1614                           
  1615                           ;LAB05.c: 312: }
  1616   001486  0012               	return	
  1617   001488                     l2892:
  1618                           
  1619                           ; BSR set to: 0
  1620                           ;LAB05.c: 313: else if(Temp<31){
  1621   001488  0E1F               	movlw	31
  1622   00148A  6188               	cpfslt	_Temp& (0+255),b
  1623   00148C  D004               	goto	l2896
  1624                           
  1625                           ; BSR set to: 0
  1626                           ;LAB05.c: 315: LATE0=1;
  1627   00148E  808D               	bsf	3981,0,c	;volatile
  1628                           
  1629                           ;LAB05.c: 316: LATE2=0;
  1630   001490  948D               	bcf	3981,2,c	;volatile
  1631                           
  1632                           ;LAB05.c: 317: LATE1=0;
  1633   001492  928D               	bcf	3981,1,c	;volatile
  1634                           
  1635                           ;LAB05.c: 318: }
  1636   001494  0012               	return	
  1637   001496                     l2896:
  1638                           
  1639                           ; BSR set to: 0
  1640                           ;LAB05.c: 319: else if(Temp<34){
  1641   001496  0E22               	movlw	34
  1642   001498  6188               	cpfslt	_Temp& (0+255),b
  1643   00149A  D004               	goto	l2900
  1644                           
  1645                           ; BSR set to: 0
  1646                           ;LAB05.c: 321: LATE0=1;
  1647   00149C  808D               	bsf	3981,0,c	;volatile
  1648                           
  1649                           ;LAB05.c: 322: LATE2=0;
  1650   00149E  948D               	bcf	3981,2,c	;volatile
  1651                           
  1652                           ;LAB05.c: 323: LATE1=1;
  1653   0014A0  828D               	bsf	3981,1,c	;volatile
  1654                           
  1655                           ;LAB05.c: 324: }
  1656   0014A2  0012               	return	
  1657   0014A4                     l2900:
  1658                           
  1659                           ; BSR set to: 0
  1660                           ;LAB05.c: 325: else if(Temp<37){
  1661   0014A4  0E25               	movlw	37
  1662   0014A6  6188               	cpfslt	_Temp& (0+255),b
  1663   0014A8  D004               	goto	l2904
  1664                           
  1665                           ; BSR set to: 0
  1666                           ;LAB05.c: 327: LATE0=0;
  1667   0014AA  908D               	bcf	3981,0,c	;volatile
  1668                           
  1669                           ;LAB05.c: 328: LATE2=0;
  1670   0014AC  948D               	bcf	3981,2,c	;volatile
  1671                           
  1672                           ;LAB05.c: 329: LATE1=1;
  1673   0014AE  828D               	bsf	3981,1,c	;volatile
  1674                           
  1675                           ;LAB05.c: 330: }
  1676   0014B0  0012               	return	
  1677   0014B2                     l2904:
  1678                           
  1679                           ; BSR set to: 0
  1680                           ;LAB05.c: 331: else if(Temp<40){
  1681   0014B2  0E28               	movlw	40
  1682   0014B4  6188               	cpfslt	_Temp& (0+255),b
  1683   0014B6  D004               	goto	l323
  1684                           
  1685                           ; BSR set to: 0
  1686                           ;LAB05.c: 333: LATE0=0;
  1687   0014B8  908D               	bcf	3981,0,c	;volatile
  1688                           
  1689                           ;LAB05.c: 334: LATE2=1;
  1690   0014BA  848D               	bsf	3981,2,c	;volatile
  1691                           
  1692                           ;LAB05.c: 335: LATE1=1;
  1693   0014BC  828D               	bsf	3981,1,c	;volatile
  1694                           
  1695                           ;LAB05.c: 336: }
  1696   0014BE  0012               	return	
  1697   0014C0                     l323:
  1698                           
  1699                           ; BSR set to: 0
  1700                           ;LAB05.c: 337: else{;LAB05.c: 339: LATE0=0;
  1701   0014C0  908D               	bcf	3981,0,c	;volatile
  1702                           
  1703                           ;LAB05.c: 340: LATE2=0;
  1704   0014C2  948D               	bcf	3981,2,c	;volatile
  1705                           
  1706                           ;LAB05.c: 341: LATE1=0;
  1707   0014C4  928D               	bcf	3981,1,c	;volatile
  1708                           
  1709                           ; BSR set to: 0
  1710   0014C6  0012               	return		;funcret
  1711   0014C8                     __end_of_show_temperature_c_RGB:
  1712                           	callstack 0
  1713                           
  1714 ;; *************** function _show_temperature_LCD *****************
  1715 ;; Defined at:
  1716 ;;		line 404 in file "/home/esteban/Esteban/UN/semester12/Microcontroladores/MPLAB_X_IDE/lab05_ADC.X/LAB05.c"
  1717 ;; Parameters:    Size  Location     Type
  1718 ;;  buffer_LCD_r    1    5[COMRAM] PTR unsigned char 
  1719 ;;		 -> main@buffer_LCD_row_1(17), 
  1720 ;;  buffer_LCD_r    1    6[COMRAM] PTR unsigned char 
  1721 ;;		 -> main@buffer_LCD_row_2(17), 
  1722 ;;  Temp_n1         1    7[COMRAM] unsigned char 
  1723 ;;  Hum_n1          1    8[COMRAM] unsigned char 
  1724 ;;  Scale_Temper    1    9[COMRAM] unsigned char 
  1725 ;; Auto vars:     Size  Location     Type
  1726 ;;  counter         1   10[COMRAM] unsigned char 
  1727 ;; Return value:  Size  Location     Type
  1728 ;;                  1    wreg      void 
  1729 ;; Registers used:
  1730 ;;		wreg, fsr2l, fsr2h, status,2, status,0, cstack
  1731 ;; Tracked objects:
  1732 ;;		On entry : 3F/0
  1733 ;;		On exit  : 0/0
  1734 ;;		Unchanged: 0/0
  1735 ;; Data sizes:     COMRAM   BANK0   BANK1   BANK2   BANK3   BANK4   BANK5   BANK6   BANK7
  1736 ;;      Params:         5       0       0       0       0       0       0       0       0
  1737 ;;      Locals:         1       0       0       0       0       0       0       0       0
  1738 ;;      Temps:          0       0       0       0       0       0       0       0       0
  1739 ;;      Totals:         6       0       0       0       0       0       0       0       0
  1740 ;;Total ram usage:        6 bytes
  1741 ;; Hardware stack levels used: 1
  1742 ;; Hardware stack levels required when called: 4
  1743 ;; This function calls:
  1744 ;;		_DireccionaLCD
  1745 ;;		_EscribeLCD_c
  1746 ;; This function is called by:
  1747 ;;		_main
  1748 ;; This function uses a non-reentrant model
  1749 ;;
  1750                           
  1751                           	psect	text8
  1752   001250                     __ptext8:
  1753                           	callstack 0
  1754   001250                     _show_temperature_LCD:
  1755                           	callstack 26
  1756                           
  1757                           ; BSR set to: 0
  1758                           ;LAB05.c: 405: unsigned char counter=0;
  1759                           
  1760                           ; BSR set to: 0
  1761                           ;incstack = 0
  1762   001250  0E00               	movlw	0
  1763   001252  6E0B               	movwf	show_temperature_LCD@counter^0,c
  1764                           
  1765                           ; BSR set to: 0
  1766                           ;LAB05.c: 407: if(Temp_n1!=Temp || Scale_Temperature!=Scale_Temperature_n1){
  1767   001254  5188               	movf	_Temp& (0+255),w,b
  1768   001256  1808               	xorwf	show_temperature_LCD@Temp_n1^0,w,c
  1769   001258  A4D8               	btfss	status,2,c
  1770   00125A  D004               	goto	u2450
  1771                           
  1772                           ; BSR set to: 0
  1773   00125C  500A               	movf	show_temperature_LCD@Scale_Temperature_n1^0,w,c
  1774   00125E  1985               	xorwf	_Scale_Temperature& (0+255),w,b
  1775   001260  B4D8               	btfsc	status,2,c
  1776   001262  D01B               	goto	u2470
  1777   001264                     u2450:
  1778                           
  1779                           ; BSR set to: 0
  1780                           ;LAB05.c: 408: DireccionaLCD(0x80);
  1781   001264  0E80               	movlw	128
  1782   001266  EC6C  F00C         	call	_DireccionaLCD
  1783                           
  1784                           ;LAB05.c: 410: while (buffer_LCD_row_1[counter]!='\0') {
  1785   00126A  D008               	goto	l2920
  1786   00126C                     l2916:
  1787                           
  1788                           ;LAB05.c: 411: EscribeLCD_c(buffer_LCD_row_1[counter]);
  1789   00126C  5006               	movf	show_temperature_LCD@buffer_LCD_row_1^0,w,c
  1790   00126E  240B               	addwf	show_temperature_LCD@counter^0,w,c
  1791   001270  6ED9               	movwf	fsr2l,c
  1792   001272  6ADA               	clrf	fsr2h,c
  1793   001274  50DF               	movf	indf2,w,c
  1794   001276  EC61  F00C         	call	_EscribeLCD_c
  1795                           
  1796                           ;LAB05.c: 412: counter++;
  1797   00127A  2A0B               	incf	show_temperature_LCD@counter^0,f,c
  1798   00127C                     l2920:
  1799   00127C  5006               	movf	show_temperature_LCD@buffer_LCD_row_1^0,w,c
  1800   00127E  240B               	addwf	show_temperature_LCD@counter^0,w,c
  1801   001280  6ED9               	movwf	fsr2l,c
  1802   001282  6ADA               	clrf	fsr2h,c
  1803   001284  50DF               	movf	indf2,w,c
  1804   001286  B4D8               	btfsc	status,2,c
  1805   001288  D005               	goto	l2926
  1806   00128A  D7F0               	goto	l2916
  1807   00128C                     l2922:
  1808                           
  1809                           ;LAB05.c: 416: EscribeLCD_c(' ');
  1810   00128C  0E20               	movlw	32
  1811   00128E  EC61  F00C         	call	_EscribeLCD_c
  1812                           
  1813                           ;LAB05.c: 417: counter++;
  1814   001292  2A0B               	incf	show_temperature_LCD@counter^0,f,c
  1815   001294                     l2926:
  1816   001294  0E0F               	movlw	15
  1817   001296  640B               	cpfsgt	show_temperature_LCD@counter^0,c
  1818   001298  D7F9               	goto	l2922
  1819   00129A                     u2470:
  1820                           
  1821                           ;LAB05.c: 418: };LAB05.c: 419: };LAB05.c: 421: counter=0;
  1822   00129A  0E00               	movlw	0
  1823   00129C  6E0B               	movwf	show_temperature_LCD@counter^0,c
  1824                           
  1825                           ;LAB05.c: 423: if(Hum_n1!=Hum){
  1826   00129E  0100               	movlb	0	; () banked
  1827   0012A0  5187               	movf	_Hum& (0+255),w,b
  1828   0012A2  1809               	xorwf	show_temperature_LCD@Hum_n1^0,w,c
  1829   0012A4  B4D8               	btfsc	status,2,c
  1830   0012A6  0012               	return	
  1831                           
  1832                           ; BSR set to: 0
  1833                           ;LAB05.c: 424: DireccionaLCD(0xC0);
  1834   0012A8  0EC0               	movlw	192
  1835   0012AA  EC6C  F00C         	call	_DireccionaLCD
  1836                           
  1837                           ;LAB05.c: 427: while (buffer_LCD_row_2[counter]!='\0') {
  1838   0012AE  D008               	goto	l2938
  1839   0012B0                     l2934:
  1840                           
  1841                           ;LAB05.c: 428: EscribeLCD_c(buffer_LCD_row_2[counter]);
  1842   0012B0  5007               	movf	show_temperature_LCD@buffer_LCD_row_2^0,w,c
  1843   0012B2  240B               	addwf	show_temperature_LCD@counter^0,w,c
  1844   0012B4  6ED9               	movwf	fsr2l,c
  1845   0012B6  6ADA               	clrf	fsr2h,c
  1846   0012B8  50DF               	movf	indf2,w,c
  1847   0012BA  EC61  F00C         	call	_EscribeLCD_c
  1848                           
  1849                           ;LAB05.c: 429: counter++;
  1850   0012BE  2A0B               	incf	show_temperature_LCD@counter^0,f,c
  1851   0012C0                     l2938:
  1852   0012C0  5007               	movf	show_temperature_LCD@buffer_LCD_row_2^0,w,c
  1853   0012C2  240B               	addwf	show_temperature_LCD@counter^0,w,c
  1854   0012C4  6ED9               	movwf	fsr2l,c
  1855   0012C6  6ADA               	clrf	fsr2h,c
  1856   0012C8  50DF               	movf	indf2,w,c
  1857   0012CA  B4D8               	btfsc	status,2,c
  1858   0012CC  D005               	goto	l2944
  1859   0012CE  D7F0               	goto	l2934
  1860   0012D0                     l2940:
  1861                           
  1862                           ;LAB05.c: 434: EscribeLCD_c(' ');
  1863   0012D0  0E20               	movlw	32
  1864   0012D2  EC61  F00C         	call	_EscribeLCD_c
  1865                           
  1866                           ;LAB05.c: 435: counter++;
  1867   0012D6  2A0B               	incf	show_temperature_LCD@counter^0,f,c
  1868   0012D8                     l2944:
  1869   0012D8  0E0F               	movlw	15
  1870   0012DA  640B               	cpfsgt	show_temperature_LCD@counter^0,c
  1871   0012DC  D7F9               	goto	l2940
  1872   0012DE  0012               	return	
  1873   0012E0                     __end_of_show_temperature_LCD:
  1874                           	callstack 0
  1875                           
  1876 ;; *************** function _EscribeLCD_c *****************
  1877 ;; Defined at:
  1878 ;;		line 136 in file "/home/esteban/Esteban/UN/semester12/Microcontroladores/MPLAB_X_IDE/lab05_ADC.X/LibLCDXC8.h"
  1879 ;; Parameters:    Size  Location     Type
  1880 ;;  a               1    wreg     unsigned char 
  1881 ;; Auto vars:     Size  Location     Type
  1882 ;;  a               1    4[COMRAM] unsigned char 
  1883 ;; Return value:  Size  Location     Type
  1884 ;;                  1    wreg      void 
  1885 ;; Registers used:
  1886 ;;		wreg, status,2, status,0, cstack
  1887 ;; Tracked objects:
  1888 ;;		On entry : 0/0
  1889 ;;		On exit  : 0/0
  1890 ;;		Unchanged: 0/0
  1891 ;; Data sizes:     COMRAM   BANK0   BANK1   BANK2   BANK3   BANK4   BANK5   BANK6   BANK7
  1892 ;;      Params:         0       0       0       0       0       0       0       0       0
  1893 ;;      Locals:         1       0       0       0       0       0       0       0       0
  1894 ;;      Temps:          0       0       0       0       0       0       0       0       0
  1895 ;;      Totals:         1       0       0       0       0       0       0       0       0
  1896 ;;Total ram usage:        1 bytes
  1897 ;; Hardware stack levels used: 1
  1898 ;; Hardware stack levels required when called: 3
  1899 ;; This function calls:
  1900 ;;		_EnviaDato
  1901 ;;		_HabilitaLCD
  1902 ;;		_RetardoLCD
  1903 ;; This function is called by:
  1904 ;;		_MensajeLCD_Var
  1905 ;;		_show_temperature_LCD
  1906 ;; This function uses a non-reentrant model
  1907 ;;
  1908                           
  1909                           	psect	text9
  1910   0018C2                     __ptext9:
  1911                           	callstack 0
  1912   0018C2                     _EscribeLCD_c:
  1913                           	callstack 25
  1914                           
  1915                           ;incstack = 0
  1916                           ;EscribeLCD_c@a stored from wreg
  1917   0018C2  6E05               	movwf	EscribeLCD_c@a^0,c
  1918                           
  1919                           ;LibLCDXC8.h: 140: LATD0=1;
  1920   0018C4  808C               	bsf	3980,0,c	;volatile
  1921                           
  1922                           ;LibLCDXC8.h: 141: EnviaDato(a);
  1923   0018C6  5005               	movf	EscribeLCD_c@a^0,w,c
  1924   0018C8  EC46  F00B         	call	_EnviaDato
  1925                           
  1926                           ;LibLCDXC8.h: 142: HabilitaLCD();
  1927   0018CC  EC89  F00C         	call	_HabilitaLCD	;wreg free
  1928                           
  1929                           ;LibLCDXC8.h: 143: RetardoLCD(4);
  1930   0018D0  0E04               	movlw	4
  1931   0018D2  EC97  F00A         	call	_RetardoLCD
  1932   0018D6  0012               	return		;funcret
  1933   0018D8                     __end_of_EscribeLCD_c:
  1934                           	callstack 0
  1935                           
  1936 ;; *************** function _DireccionaLCD *****************
  1937 ;; Defined at:
  1938 ;;		line 259 in file "/home/esteban/Esteban/UN/semester12/Microcontroladores/MPLAB_X_IDE/lab05_ADC.X/LibLCDXC8.h"
  1939 ;; Parameters:    Size  Location     Type
  1940 ;;  a               1    wreg     unsigned char 
  1941 ;; Auto vars:     Size  Location     Type
  1942 ;;  a               1    4[COMRAM] unsigned char 
  1943 ;; Return value:  Size  Location     Type
  1944 ;;                  1    wreg      void 
  1945 ;; Registers used:
  1946 ;;		wreg, status,2, status,0, cstack
  1947 ;; Tracked objects:
  1948 ;;		On entry : 0/0
  1949 ;;		On exit  : 0/0
  1950 ;;		Unchanged: 0/0
  1951 ;; Data sizes:     COMRAM   BANK0   BANK1   BANK2   BANK3   BANK4   BANK5   BANK6   BANK7
  1952 ;;      Params:         0       0       0       0       0       0       0       0       0
  1953 ;;      Locals:         1       0       0       0       0       0       0       0       0
  1954 ;;      Temps:          0       0       0       0       0       0       0       0       0
  1955 ;;      Totals:         1       0       0       0       0       0       0       0       0
  1956 ;;Total ram usage:        1 bytes
  1957 ;; Hardware stack levels used: 1
  1958 ;; Hardware stack levels required when called: 3
  1959 ;; This function calls:
  1960 ;;		_EnviaDato
  1961 ;;		_HabilitaLCD
  1962 ;;		_RetardoLCD
  1963 ;; This function is called by:
  1964 ;;		_MensajeLCD_Var
  1965 ;;		_show_temperature_LCD
  1966 ;; This function uses a non-reentrant model
  1967 ;;
  1968                           
  1969                           	psect	text10
  1970   0018D8                     __ptext10:
  1971                           	callstack 0
  1972   0018D8                     _DireccionaLCD:
  1973                           	callstack 25
  1974                           
  1975                           ;incstack = 0
  1976                           ;DireccionaLCD@a stored from wreg
  1977   0018D8  6E05               	movwf	DireccionaLCD@a^0,c
  1978                           
  1979                           ;LibLCDXC8.h: 262: LATD0=0;
  1980   0018DA  908C               	bcf	3980,0,c	;volatile
  1981                           
  1982                           ;LibLCDXC8.h: 263: EnviaDato(a);
  1983   0018DC  5005               	movf	DireccionaLCD@a^0,w,c
  1984   0018DE  EC46  F00B         	call	_EnviaDato
  1985                           
  1986                           ;LibLCDXC8.h: 264: HabilitaLCD();
  1987   0018E2  EC89  F00C         	call	_HabilitaLCD	;wreg free
  1988                           
  1989                           ;LibLCDXC8.h: 265: RetardoLCD(4);
  1990   0018E6  0E04               	movlw	4
  1991   0018E8  EC97  F00A         	call	_RetardoLCD
  1992   0018EC  0012               	return		;funcret
  1993   0018EE                     __end_of_DireccionaLCD:
  1994                           	callstack 0
  1995                           
  1996 ;; *************** function _send_temperature_RS232 *****************
  1997 ;; Defined at:
  1998 ;;		line 391 in file "/home/esteban/Esteban/UN/semester12/Microcontroladores/MPLAB_X_IDE/lab05_ADC.X/LAB05.c"
  1999 ;; Parameters:    Size  Location     Type
  2000 ;;		None
  2001 ;; Auto vars:     Size  Location     Type
  2002 ;;  buffer_RS232   12   27[COMRAM] unsigned char [12]
  2003 ;;  counter         1   39[COMRAM] unsigned char 
  2004 ;; Return value:  Size  Location     Type
  2005 ;;                  1    wreg      void 
  2006 ;; Registers used:
  2007 ;;		wreg, fsr2l, fsr2h, status,2, status,0, tblptrl, tblptrh, tblptru, prodl, prodh, cstack
  2008 ;; Tracked objects:
  2009 ;;		On entry : 0/0
  2010 ;;		On exit  : 0/0
  2011 ;;		Unchanged: 0/0
  2012 ;; Data sizes:     COMRAM   BANK0   BANK1   BANK2   BANK3   BANK4   BANK5   BANK6   BANK7
  2013 ;;      Params:         0       0       0       0       0       0       0       0       0
  2014 ;;      Locals:        13       0       0       0       0       0       0       0       0
  2015 ;;      Temps:          2       0       0       0       0       0       0       0       0
  2016 ;;      Totals:        15       0       0       0       0       0       0       0       0
  2017 ;;Total ram usage:       15 bytes
  2018 ;; Hardware stack levels used: 1
  2019 ;; Hardware stack levels required when called: 3
  2020 ;; This function calls:
  2021 ;;		_Transmitir
  2022 ;;		_sprintf
  2023 ;; This function is called by:
  2024 ;;		_main
  2025 ;; This function uses a non-reentrant model
  2026 ;;
  2027                           
  2028                           	psect	text11
  2029   00163C                     __ptext11:
  2030                           	callstack 0
  2031   00163C                     _send_temperature_RS232:
  2032                           	callstack 27
  2033                           
  2034                           ;LAB05.c: 392: unsigned char counter=0;
  2035                           
  2036                           ;incstack = 0
  2037   00163C  0E00               	movlw	0
  2038   00163E  6E28               	movwf	send_temperature_RS232@counter^0,c
  2039                           
  2040                           ;LAB05.c: 393: unsigned char buffer_RS232[12];;LAB05.c: 394: sprintf(buffer_RS232, "T: %
      +                          i C\n",Temp);
  2041   001640  0E1C               	movlw	low send_temperature_RS232@buffer_RS232
  2042   001642  6E0D               	movwf	sprintf@sp^0,c
  2043   001644  0E36               	movlw	low STR_15
  2044   001646  6E0E               	movwf	sprintf@f^0,c
  2045   001648  C088  F00F         	movff	_Temp,?_sprintf+2
  2046   00164C  6A10               	clrf	(?_sprintf+3)^0,c
  2047   00164E  EC14  F006         	call	_sprintf	;wreg free
  2048                           
  2049                           ;LAB05.c: 396: while(buffer_RS232[counter]!='\0'){
  2050   001652  D008               	goto	l2826
  2051   001654                     l2822:
  2052                           
  2053                           ;LAB05.c: 397: Transmitir(buffer_RS232[counter]);
  2054   001654  5028               	movf	send_temperature_RS232@counter^0,w,c
  2055   001656  0F1C               	addlw	low send_temperature_RS232@buffer_RS232
  2056   001658  6ED9               	movwf	fsr2l,c
  2057   00165A  6ADA               	clrf	fsr2h,c
  2058   00165C  50DF               	movf	indf2,w,c
  2059   00165E  EC90  F00C         	call	_Transmitir
  2060                           
  2061                           ;LAB05.c: 398: counter++;
  2062   001662  2A28               	incf	send_temperature_RS232@counter^0,f,c
  2063   001664                     l2826:
  2064   001664  5028               	movf	send_temperature_RS232@counter^0,w,c
  2065   001666  0F1C               	addlw	low send_temperature_RS232@buffer_RS232
  2066   001668  6ED9               	movwf	fsr2l,c
  2067   00166A  6ADA               	clrf	fsr2h,c
  2068   00166C  50DF               	movf	indf2,w,c
  2069   00166E  A4D8               	btfss	status,2,c
  2070   001670  D7F1               	goto	l2822
  2071                           
  2072                           ;LAB05.c: 399: };LAB05.c: 400: _delay((unsigned long)((200)*(8000000/4000.0)));
  2073   001672  0E03               	movlw	3
  2074   001674  6E1B               	movwf	(??_send_temperature_RS232+1)^0,c
  2075   001676  0E08               	movlw	8
  2076   001678  6E1A               	movwf	??_send_temperature_RS232^0,c
  2077   00167A  0E77               	movlw	119
  2078   00167C                     u2597:
  2079   00167C  2EE8               	decfsz	wreg,f,c
  2080   00167E  D7FE               	bra	u2597
  2081   001680  2E1A               	decfsz	??_send_temperature_RS232^0,f,c
  2082   001682  D7FC               	bra	u2597
  2083   001684  2E1B               	decfsz	(??_send_temperature_RS232+1)^0,f,c
  2084   001686  D7FA               	bra	u2597
  2085   001688  F000               	nop	
  2086   00168A  0012               	return		;funcret
  2087   00168C                     __end_of_send_temperature_RS232:
  2088                           	callstack 0
  2089                           
  2090 ;; *************** function _Transmitir *****************
  2091 ;; Defined at:
  2092 ;;		line 444 in file "/home/esteban/Esteban/UN/semester12/Microcontroladores/MPLAB_X_IDE/lab05_ADC.X/LAB05.c"
  2093 ;; Parameters:    Size  Location     Type
  2094 ;;  BufferT         1    wreg     unsigned char 
  2095 ;; Auto vars:     Size  Location     Type
  2096 ;;  BufferT         1    0[COMRAM] unsigned char 
  2097 ;; Return value:  Size  Location     Type
  2098 ;;                  1    wreg      void 
  2099 ;; Registers used:
  2100 ;;		wreg
  2101 ;; Tracked objects:
  2102 ;;		On entry : 0/0
  2103 ;;		On exit  : 0/0
  2104 ;;		Unchanged: 0/0
  2105 ;; Data sizes:     COMRAM   BANK0   BANK1   BANK2   BANK3   BANK4   BANK5   BANK6   BANK7
  2106 ;;      Params:         0       0       0       0       0       0       0       0       0
  2107 ;;      Locals:         1       0       0       0       0       0       0       0       0
  2108 ;;      Temps:          0       0       0       0       0       0       0       0       0
  2109 ;;      Totals:         1       0       0       0       0       0       0       0       0
  2110 ;;Total ram usage:        1 bytes
  2111 ;; Hardware stack levels used: 1
  2112 ;; Hardware stack levels required when called: 1
  2113 ;; This function calls:
  2114 ;;		Nothing
  2115 ;; This function is called by:
  2116 ;;		_send_temperature_RS232
  2117 ;; This function uses a non-reentrant model
  2118 ;;
  2119                           
  2120                           	psect	text12
  2121   001920                     __ptext12:
  2122                           	callstack 0
  2123   001920                     _Transmitir:
  2124                           	callstack 28
  2125                           
  2126                           ;incstack = 0
  2127                           ;Transmitir@BufferT stored from wreg
  2128   001920  6E01               	movwf	Transmitir@BufferT^0,c
  2129   001922                     
  2130                           ;LAB05.c: 445: while(TRMT==0);
  2131   001922  A2AC               	btfss	4012,1,c	;volatile
  2132   001924  D7FE               	goto	l2502
  2133                           
  2134                           ;LAB05.c: 446: TXREG=BufferT;
  2135   001926  C001  FFAD         	movff	Transmitir@BufferT,4013	;volatile
  2136   00192A  0012               	return		;funcret
  2137   00192C                     __end_of_Transmitir:
  2138                           	callstack 0
  2139                           
  2140 ;; *************** function _save_temperature_c_EEPROM *****************
  2141 ;; Defined at:
  2142 ;;		line 289 in file "/home/esteban/Esteban/UN/semester12/Microcontroladores/MPLAB_X_IDE/lab05_ADC.X/LAB05.c"
  2143 ;; Parameters:    Size  Location     Type
  2144 ;;		None
  2145 ;; Auto vars:     Size  Location     Type
  2146 ;;		None
  2147 ;; Return value:  Size  Location     Type
  2148 ;;                  1    wreg      void 
  2149 ;; Registers used:
  2150 ;;		wreg, status,2, cstack
  2151 ;; Tracked objects:
  2152 ;;		On entry : 0/0
  2153 ;;		On exit  : 0/0
  2154 ;;		Unchanged: 0/0
  2155 ;; Data sizes:     COMRAM   BANK0   BANK1   BANK2   BANK3   BANK4   BANK5   BANK6   BANK7
  2156 ;;      Params:         0       0       0       0       0       0       0       0       0
  2157 ;;      Locals:         0       0       0       0       0       0       0       0       0
  2158 ;;      Temps:          0       0       0       0       0       0       0       0       0
  2159 ;;      Totals:         0       0       0       0       0       0       0       0       0
  2160 ;;Total ram usage:        0 bytes
  2161 ;; Hardware stack levels used: 1
  2162 ;; Hardware stack levels required when called: 2
  2163 ;; This function calls:
  2164 ;;		_EEPROM_Write
  2165 ;; This function is called by:
  2166 ;;		_main
  2167 ;; This function uses a non-reentrant model
  2168 ;;
  2169                           
  2170                           	psect	text13
  2171   00192C                     __ptext13:
  2172                           	callstack 0
  2173   00192C                     _save_temperature_c_EEPROM:
  2174                           	callstack 28
  2175                           
  2176                           ;LAB05.c: 290: EEPROM_Write(0, Temp);
  2177                           
  2178                           ;incstack = 0
  2179   00192C  C088  F001         	movff	_Temp,EEPROM_Write@data
  2180   001930  0E00               	movlw	0
  2181   001932  ECEB  F00B         	call	_EEPROM_Write
  2182   001936  0012               	return		;funcret
  2183   001938                     __end_of_save_temperature_c_EEPROM:
  2184                           	callstack 0
  2185                           
  2186 ;; *************** function _EEPROM_Write *****************
  2187 ;; Defined at:
  2188 ;;		line 460 in file "/home/esteban/Esteban/UN/semester12/Microcontroladores/MPLAB_X_IDE/lab05_ADC.X/LAB05.c"
  2189 ;; Parameters:    Size  Location     Type
  2190 ;;  address         1    wreg     unsigned char 
  2191 ;;  data            1    0[COMRAM] unsigned char 
  2192 ;; Auto vars:     Size  Location     Type
  2193 ;;  address         1    1[COMRAM] unsigned char 
  2194 ;; Return value:  Size  Location     Type
  2195 ;;                  1    wreg      void 
  2196 ;; Registers used:
  2197 ;;		wreg, status,2
  2198 ;; Tracked objects:
  2199 ;;		On entry : 0/0
  2200 ;;		On exit  : 0/0
  2201 ;;		Unchanged: 0/0
  2202 ;; Data sizes:     COMRAM   BANK0   BANK1   BANK2   BANK3   BANK4   BANK5   BANK6   BANK7
  2203 ;;      Params:         1       0       0       0       0       0       0       0       0
  2204 ;;      Locals:         1       0       0       0       0       0       0       0       0
  2205 ;;      Temps:          0       0       0       0       0       0       0       0       0
  2206 ;;      Totals:         2       0       0       0       0       0       0       0       0
  2207 ;;Total ram usage:        2 bytes
  2208 ;; Hardware stack levels used: 1
  2209 ;; Hardware stack levels required when called: 1
  2210 ;; This function calls:
  2211 ;;		Nothing
  2212 ;; This function is called by:
  2213 ;;		_save_temperature_c_EEPROM
  2214 ;; This function uses a non-reentrant model
  2215 ;;
  2216                           
  2217                           	psect	text14
  2218   0017D6                     __ptext14:
  2219                           	callstack 0
  2220   0017D6                     _EEPROM_Write:
  2221                           	callstack 28
  2222                           
  2223                           ;incstack = 0
  2224                           ;EEPROM_Write@address stored from wreg
  2225   0017D6  6E02               	movwf	EEPROM_Write@address^0,c
  2226                           
  2227                           ;LAB05.c: 461: EEADR=address;
  2228   0017D8  C002  FFA9         	movff	EEPROM_Write@address,4009	;volatile
  2229                           
  2230                           ;LAB05.c: 462: EEDATA=data;
  2231   0017DC  C001  FFA8         	movff	EEPROM_Write@data,4008	;volatile
  2232                           
  2233                           ;LAB05.c: 464: EEPGD=0;
  2234   0017E0  9EA6               	bcf	4006,7,c	;volsfr
  2235                           
  2236                           ;LAB05.c: 465: CFGS=0;
  2237   0017E2  9CA6               	bcf	4006,6,c	;volsfr
  2238                           
  2239                           ;LAB05.c: 466: WREN=1;
  2240   0017E4  84A6               	bsf	4006,2,c	;volsfr
  2241                           
  2242                           ;LAB05.c: 468: GIE=0;
  2243   0017E6  9EF2               	bcf	4082,7,c	;volatile
  2244                           
  2245                           ;LAB05.c: 470: EECON2=0x55;
  2246   0017E8  0E55               	movlw	85
  2247   0017EA  6EA7               	movwf	167,c	;volsfr
  2248                           
  2249                           ;LAB05.c: 471: EECON2=0xAA;
  2250   0017EC  0EAA               	movlw	170
  2251   0017EE  6EA7               	movwf	167,c	;volsfr
  2252                           
  2253                           ;LAB05.c: 473: WR=1;
  2254   0017F0  82A6               	bsf	4006,1,c	;volsfr
  2255   0017F2                     l375:
  2256   0017F2  B2A6               	btfsc	4006,1,c	;volsfr
  2257   0017F4  D7FE               	goto	l375
  2258                           
  2259                           ;LAB05.c: 476: GIE=1;
  2260   0017F6  8EF2               	bsf	4082,7,c	;volatile
  2261                           
  2262                           ;LAB05.c: 477: WREN=0;
  2263   0017F8  94A6               	bcf	4006,2,c	;volsfr
  2264                           
  2265                           ;LAB05.c: 478: return;
  2266   0017FA  0012               	return		;funcret
  2267   0017FC                     __end_of_EEPROM_Write:
  2268                           	callstack 0
  2269                           
  2270 ;; *************** function _measure_temperature_c_humidity_per *****************
  2271 ;; Defined at:
  2272 ;;		line 226 in file "/home/esteban/Esteban/UN/semester12/Microcontroladores/MPLAB_X_IDE/lab05_ADC.X/LAB05.c"
  2273 ;; Parameters:    Size  Location     Type
  2274 ;;		None
  2275 ;; Auto vars:     Size  Location     Type
  2276 ;;		None
  2277 ;; Return value:  Size  Location     Type
  2278 ;;                  1    wreg      void 
  2279 ;; Registers used:
  2280 ;;		wreg, status,2, status,0, cstack
  2281 ;; Tracked objects:
  2282 ;;		On entry : 3F/0
  2283 ;;		On exit  : 0/0
  2284 ;;		Unchanged: 0/0
  2285 ;; Data sizes:     COMRAM   BANK0   BANK1   BANK2   BANK3   BANK4   BANK5   BANK6   BANK7
  2286 ;;      Params:         0       0       0       0       0       0       0       0       0
  2287 ;;      Locals:         0       0       0       0       0       0       0       0       0
  2288 ;;      Temps:          0       0       0       0       0       0       0       0       0
  2289 ;;      Totals:         0       0       0       0       0       0       0       0       0
  2290 ;;Total ram usage:        0 bytes
  2291 ;; Hardware stack levels used: 1
  2292 ;; Hardware stack levels required when called: 2
  2293 ;; This function calls:
  2294 ;;		_DHT11_CheckResponse
  2295 ;;		_DHT11_ReadData
  2296 ;;		_DHT11_Start
  2297 ;; This function is called by:
  2298 ;;		_main
  2299 ;; This function uses a non-reentrant model
  2300 ;;
  2301                           
  2302                           	psect	text15
  2303   0017FC                     __ptext15:
  2304                           	callstack 0
  2305   0017FC                     _measure_temperature_c_humidity_per:
  2306                           	callstack 28
  2307                           
  2308                           ; BSR set to: 0
  2309                           ;LAB05.c: 227: DHT11_Start();
  2310                           
  2311                           ;incstack = 0
  2312   0017FC  EC35  F00C         	call	_DHT11_Start	;wreg free
  2313                           
  2314                           ;LAB05.c: 228: DHT11_CheckResponse();
  2315   001800  ECA7  F00B         	call	_DHT11_CheckResponse	;wreg free
  2316                           
  2317                           ;LAB05.c: 231: Hum = DHT11_ReadData();
  2318   001804  ECCA  F00A         	call	_DHT11_ReadData	;wreg free
  2319   001808  0100               	movlb	0	; () banked
  2320   00180A  6F87               	movwf	_Hum& (0+255),b
  2321                           
  2322                           ; BSR set to: 0
  2323                           ;LAB05.c: 232: DHT11_ReadData();
  2324   00180C  ECCA  F00A         	call	_DHT11_ReadData	;wreg free
  2325                           
  2326                           ;LAB05.c: 233: Temp = DHT11_ReadData();
  2327   001810  ECCA  F00A         	call	_DHT11_ReadData	;wreg free
  2328   001814  0100               	movlb	0	; () banked
  2329   001816  6F88               	movwf	_Temp& (0+255),b
  2330                           
  2331                           ; BSR set to: 0
  2332                           ;LAB05.c: 234: DHT11_ReadData();
  2333   001818  ECCA  F00A         	call	_DHT11_ReadData	;wreg free
  2334                           
  2335                           ;LAB05.c: 235: DHT11_ReadData();
  2336   00181C  ECCA  F00A         	call	_DHT11_ReadData	;wreg free
  2337   001820  0012               	return		;funcret
  2338   001822                     __end_of_measure_temperature_c_humidity_per:
  2339                           	callstack 0
  2340                           
  2341 ;; *************** function _DHT11_Start *****************
  2342 ;; Defined at:
  2343 ;;		line 257 in file "/home/esteban/Esteban/UN/semester12/Microcontroladores/MPLAB_X_IDE/lab05_ADC.X/LAB05.c"
  2344 ;; Parameters:    Size  Location     Type
  2345 ;;		None
  2346 ;; Auto vars:     Size  Location     Type
  2347 ;;		None
  2348 ;; Return value:  Size  Location     Type
  2349 ;;                  1    wreg      void 
  2350 ;; Registers used:
  2351 ;;		wreg
  2352 ;; Tracked objects:
  2353 ;;		On entry : 3F/0
  2354 ;;		On exit  : 0/0
  2355 ;;		Unchanged: 0/0
  2356 ;; Data sizes:     COMRAM   BANK0   BANK1   BANK2   BANK3   BANK4   BANK5   BANK6   BANK7
  2357 ;;      Params:         0       0       0       0       0       0       0       0       0
  2358 ;;      Locals:         0       0       0       0       0       0       0       0       0
  2359 ;;      Temps:          1       0       0       0       0       0       0       0       0
  2360 ;;      Totals:         1       0       0       0       0       0       0       0       0
  2361 ;;Total ram usage:        1 bytes
  2362 ;; Hardware stack levels used: 1
  2363 ;; Hardware stack levels required when called: 1
  2364 ;; This function calls:
  2365 ;;		Nothing
  2366 ;; This function is called by:
  2367 ;;		_measure_temperature_c_humidity_per
  2368 ;; This function uses a non-reentrant model
  2369 ;;
  2370                           
  2371                           	psect	text16
  2372   00186A                     __ptext16:
  2373                           	callstack 0
  2374   00186A                     _DHT11_Start:
  2375                           	callstack 28
  2376                           
  2377                           ; BSR set to: 0
  2378                           ;LAB05.c: 259: TRISC1 = 0;
  2379                           
  2380                           ;incstack = 0
  2381   00186A  9294               	bcf	3988,1,c	;volatile
  2382                           
  2383                           ;LAB05.c: 260: LATC1 = 0;
  2384   00186C  928B               	bcf	3979,1,c	;volatile
  2385                           
  2386                           ; BSR set to: 0
  2387                           ;LAB05.c: 261: _delay((unsigned long)((18)*(8000000/4000.0)));
  2388   00186E  0E2F               	movlw	47
  2389   001870  6E01               	movwf	??_DHT11_Start^0,c
  2390   001872  0EC0               	movlw	192
  2391   001874                     u2607:
  2392   001874  2EE8               	decfsz	wreg,f,c
  2393   001876  D7FE               	bra	u2607
  2394   001878  2E01               	decfsz	??_DHT11_Start^0,f,c
  2395   00187A  D7FC               	bra	u2607
  2396                           
  2397                           ;LAB05.c: 262: LATC1 = 1;
  2398   00187C  828B               	bsf	3979,1,c	;volatile
  2399                           
  2400                           ;LAB05.c: 263: _delay((unsigned long)((20)*(8000000/4000000.0)));
  2401   00187E  0E0D               	movlw	13
  2402   001880                     u2617:
  2403   001880  2EE8               	decfsz	wreg,f,c
  2404   001882  D7FE               	bra	u2617
  2405   001884  F000               	nop	
  2406                           
  2407                           ;LAB05.c: 264: TRISC1 = 1;
  2408   001886  8294               	bsf	3988,1,c	;volatile
  2409                           
  2410                           ;LAB05.c: 265: LATC1 = 0;
  2411   001888  928B               	bcf	3979,1,c	;volatile
  2412   00188A  0012               	return		;funcret
  2413   00188C                     __end_of_DHT11_Start:
  2414                           	callstack 0
  2415                           
  2416 ;; *************** function _DHT11_ReadData *****************
  2417 ;; Defined at:
  2418 ;;		line 241 in file "/home/esteban/Esteban/UN/semester12/Microcontroladores/MPLAB_X_IDE/lab05_ADC.X/LAB05.c"
  2419 ;; Parameters:    Size  Location     Type
  2420 ;;		None
  2421 ;; Auto vars:     Size  Location     Type
  2422 ;;  data            1    2[COMRAM] unsigned char 
  2423 ;;  i               1    1[COMRAM] unsigned char 
  2424 ;; Return value:  Size  Location     Type
  2425 ;;                  1    wreg      unsigned char 
  2426 ;; Registers used:
  2427 ;;		wreg, status,2, status,0
  2428 ;; Tracked objects:
  2429 ;;		On entry : 0/0
  2430 ;;		On exit  : 0/0
  2431 ;;		Unchanged: 0/0
  2432 ;; Data sizes:     COMRAM   BANK0   BANK1   BANK2   BANK3   BANK4   BANK5   BANK6   BANK7
  2433 ;;      Params:         0       0       0       0       0       0       0       0       0
  2434 ;;      Locals:         2       0       0       0       0       0       0       0       0
  2435 ;;      Temps:          1       0       0       0       0       0       0       0       0
  2436 ;;      Totals:         3       0       0       0       0       0       0       0       0
  2437 ;;Total ram usage:        3 bytes
  2438 ;; Hardware stack levels used: 1
  2439 ;; Hardware stack levels required when called: 1
  2440 ;; This function calls:
  2441 ;;		Nothing
  2442 ;; This function is called by:
  2443 ;;		_measure_temperature_c_humidity_per
  2444 ;; This function uses a non-reentrant model
  2445 ;;
  2446                           
  2447                           	psect	text17
  2448   001594                     __ptext17:
  2449                           	callstack 0
  2450   001594                     _DHT11_ReadData:
  2451                           	callstack 28
  2452                           
  2453                           ;LAB05.c: 243: unsigned char i,data = 0;
  2454                           
  2455                           ;incstack = 0
  2456   001594  0E00               	movlw	0
  2457   001596  6E03               	movwf	DHT11_ReadData@data^0,c
  2458                           
  2459                           ;LAB05.c: 244: for(i=0;i<8;i++)
  2460   001598  0E00               	movlw	0
  2461   00159A  6E02               	movwf	DHT11_ReadData@i^0,c
  2462   00159C                     l274:
  2463   00159C  A282               	btfss	3970,1,c	;volatile
  2464   00159E  D003               	goto	u1680
  2465   0015A0  6A01               	clrf	??_DHT11_ReadData^0,c
  2466   0015A2  2A01               	incf	??_DHT11_ReadData^0,f,c
  2467   0015A4  D001               	goto	u1698
  2468   0015A6                     u1680:
  2469   0015A6  6A01               	clrf	??_DHT11_ReadData^0,c
  2470   0015A8                     u1698:
  2471   0015A8  A001               	btfss	??_DHT11_ReadData^0,0,c
  2472   0015AA  D7F8               	goto	l274
  2473                           
  2474                           ;LAB05.c: 247: _delay((unsigned long)((30)*(8000000/4000000.0)));
  2475   0015AC  0E14               	movlw	20
  2476   0015AE                     u2627:
  2477   0015AE  2EE8               	decfsz	wreg,f,c
  2478   0015B0  D7FE               	bra	u2627
  2479                           
  2480                           ;LAB05.c: 248: if(RC1 & 1)
  2481   0015B2  A282               	btfss	3970,1,c	;volatile
  2482   0015B4  D003               	goto	u1710
  2483   0015B6  6A01               	clrf	??_DHT11_ReadData^0,c
  2484   0015B8  2A01               	incf	??_DHT11_ReadData^0,f,c
  2485   0015BA  D001               	goto	u1728
  2486   0015BC                     u1710:
  2487   0015BC  6A01               	clrf	??_DHT11_ReadData^0,c
  2488   0015BE                     u1728:
  2489   0015BE  A001               	btfss	??_DHT11_ReadData^0,0,c
  2490   0015C0  D003               	goto	l2406
  2491                           
  2492                           ;LAB05.c: 249: data = ((data<<1) | 1);
  2493   0015C2  80D8               	bsf	status,0,c
  2494   0015C4  3603               	rlcf	DHT11_ReadData@data^0,f,c
  2495   0015C6  D003               	goto	l279
  2496   0015C8                     l2406:
  2497                           
  2498                           ;LAB05.c: 250: else;LAB05.c: 251: data = (data<<1);
  2499   0015C8  5003               	movf	DHT11_ReadData@data^0,w,c
  2500   0015CA  2403               	addwf	DHT11_ReadData@data^0,w,c
  2501   0015CC  6E03               	movwf	DHT11_ReadData@data^0,c
  2502   0015CE                     l279:
  2503   0015CE  A282               	btfss	3970,1,c	;volatile
  2504   0015D0  D003               	goto	u1740
  2505   0015D2  6A01               	clrf	??_DHT11_ReadData^0,c
  2506   0015D4  2A01               	incf	??_DHT11_ReadData^0,f,c
  2507   0015D6  D001               	goto	u1758
  2508   0015D8                     u1740:
  2509   0015D8  6A01               	clrf	??_DHT11_ReadData^0,c
  2510   0015DA                     u1758:
  2511   0015DA  B001               	btfsc	??_DHT11_ReadData^0,0,c
  2512   0015DC  D7F8               	goto	l279
  2513   0015DE  2A02               	incf	DHT11_ReadData@i^0,f,c
  2514   0015E0  0E07               	movlw	7
  2515   0015E2  6402               	cpfsgt	DHT11_ReadData@i^0,c
  2516   0015E4  D7DB               	goto	l274
  2517                           
  2518                           ;LAB05.c: 253: };LAB05.c: 254: return data;
  2519   0015E6  5003               	movf	DHT11_ReadData@data^0,w,c
  2520   0015E8  0012               	return		;funcret
  2521   0015EA                     __end_of_DHT11_ReadData:
  2522                           	callstack 0
  2523                           
  2524 ;; *************** function _DHT11_CheckResponse *****************
  2525 ;; Defined at:
  2526 ;;		line 269 in file "/home/esteban/Esteban/UN/semester12/Microcontroladores/MPLAB_X_IDE/lab05_ADC.X/LAB05.c"
  2527 ;; Parameters:    Size  Location     Type
  2528 ;;		None
  2529 ;; Auto vars:     Size  Location     Type
  2530 ;;		None
  2531 ;; Return value:  Size  Location     Type
  2532 ;;                  1    wreg      void 
  2533 ;; Registers used:
  2534 ;;		None
  2535 ;; Tracked objects:
  2536 ;;		On entry : 0/0
  2537 ;;		On exit  : 0/0
  2538 ;;		Unchanged: 0/0
  2539 ;; Data sizes:     COMRAM   BANK0   BANK1   BANK2   BANK3   BANK4   BANK5   BANK6   BANK7
  2540 ;;      Params:         0       0       0       0       0       0       0       0       0
  2541 ;;      Locals:         0       0       0       0       0       0       0       0       0
  2542 ;;      Temps:          1       0       0       0       0       0       0       0       0
  2543 ;;      Totals:         1       0       0       0       0       0       0       0       0
  2544 ;;Total ram usage:        1 bytes
  2545 ;; Hardware stack levels used: 1
  2546 ;; Hardware stack levels required when called: 1
  2547 ;; This function calls:
  2548 ;;		Nothing
  2549 ;; This function is called by:
  2550 ;;		_measure_temperature_c_humidity_per
  2551 ;; This function uses a non-reentrant model
  2552 ;;
  2553                           
  2554                           	psect	text18
  2555   00174E                     __ptext18:
  2556                           	callstack 0
  2557   00174E                     _DHT11_CheckResponse:
  2558                           	callstack 28
  2559                           
  2560                           ;LAB05.c: 271: while(RC1 & 1);
  2561                           
  2562                           ;incstack = 0
  2563   00174E  A282               	btfss	3970,1,c	;volatile
  2564   001750  D003               	goto	u1590
  2565   001752  6A01               	clrf	??_DHT11_CheckResponse^0,c
  2566   001754  2A01               	incf	??_DHT11_CheckResponse^0,f,c
  2567   001756  D001               	goto	u1608
  2568   001758                     u1590:
  2569   001758  6A01               	clrf	??_DHT11_CheckResponse^0,c
  2570   00175A                     u1608:
  2571   00175A  B001               	btfsc	??_DHT11_CheckResponse^0,0,c
  2572   00175C  D7F8               	goto	__ptext18
  2573   00175E                     u1610:
  2574   00175E  A282               	btfss	3970,1,c	;volatile
  2575   001760  D003               	goto	u1620
  2576   001762  6A01               	clrf	??_DHT11_CheckResponse^0,c
  2577   001764  2A01               	incf	??_DHT11_CheckResponse^0,f,c
  2578   001766  D001               	goto	u1638
  2579   001768                     u1620:
  2580   001768  6A01               	clrf	??_DHT11_CheckResponse^0,c
  2581   00176A                     u1638:
  2582   00176A  A001               	btfss	??_DHT11_CheckResponse^0,0,c
  2583   00176C  D7F8               	goto	u1610
  2584   00176E                     u1640:
  2585   00176E  A282               	btfss	3970,1,c	;volatile
  2586   001770  D003               	goto	u1650
  2587   001772  6A01               	clrf	??_DHT11_CheckResponse^0,c
  2588   001774  2A01               	incf	??_DHT11_CheckResponse^0,f,c
  2589   001776  D001               	goto	u1668
  2590   001778                     u1650:
  2591   001778  6A01               	clrf	??_DHT11_CheckResponse^0,c
  2592   00177A                     u1668:
  2593   00177A  A001               	btfss	??_DHT11_CheckResponse^0,0,c
  2594   00177C  0012               	return	
  2595   00177E  D7F7               	goto	u1640
  2596   001780                     __end_of_DHT11_CheckResponse:
  2597                           	callstack 0
  2598                           
  2599 ;; *************** function _init_configuration *****************
  2600 ;; Defined at:
  2601 ;;		line 132 in file "/home/esteban/Esteban/UN/semester12/Microcontroladores/MPLAB_X_IDE/lab05_ADC.X/LAB05.c"
  2602 ;; Parameters:    Size  Location     Type
  2603 ;;		None
  2604 ;; Auto vars:     Size  Location     Type
  2605 ;;		None
  2606 ;; Return value:  Size  Location     Type
  2607 ;;                  1    wreg      void 
  2608 ;; Registers used:
  2609 ;;		wreg, status,2, status,0, cstack
  2610 ;; Tracked objects:
  2611 ;;		On entry : 0/0
  2612 ;;		On exit  : 0/0
  2613 ;;		Unchanged: 0/0
  2614 ;; Data sizes:     COMRAM   BANK0   BANK1   BANK2   BANK3   BANK4   BANK5   BANK6   BANK7
  2615 ;;      Params:         0       0       0       0       0       0       0       0       0
  2616 ;;      Locals:         0       0       0       0       0       0       0       0       0
  2617 ;;      Temps:          2       0       0       0       0       0       0       0       0
  2618 ;;      Totals:         2       0       0       0       0       0       0       0       0
  2619 ;;Total ram usage:        2 bytes
  2620 ;; Hardware stack levels used: 1
  2621 ;; Hardware stack levels required when called: 5
  2622 ;; This function calls:
  2623 ;;		_ConfiguraLCD
  2624 ;;		_InicializaLCD
  2625 ;; This function is called by:
  2626 ;;		_main
  2627 ;; This function uses a non-reentrant model
  2628 ;;
  2629                           
  2630                           	psect	text19
  2631   0013E0                     __ptext19:
  2632                           	callstack 0
  2633   0013E0                     _init_configuration:
  2634                           	callstack 25
  2635                           
  2636                           ;LAB05.c: 135: OSCCON=0b01110000;
  2637                           
  2638                           ;incstack = 0
  2639   0013E0  0E70               	movlw	112
  2640   0013E2  6ED3               	movwf	211,c	;volatile
  2641                           
  2642                           ;LAB05.c: 136: _delay((unsigned long)((1)*(8000000/4000.0)));
  2643   0013E4  0E03               	movlw	3
  2644   0013E6  6E05               	movwf	??_init_configuration^0,c
  2645   0013E8  0E98               	movlw	152
  2646   0013EA                     u2637:
  2647   0013EA  2EE8               	decfsz	wreg,f,c
  2648   0013EC  D7FE               	bra	u2637
  2649   0013EE  2E05               	decfsz	??_init_configuration^0,f,c
  2650   0013F0  D7FC               	bra	u2637
  2651                           
  2652                           ;LAB05.c: 141: TXSTA=0b00100000;
  2653   0013F2  0E20               	movlw	32
  2654   0013F4  6EAC               	movwf	172,c	;volatile
  2655                           
  2656                           ;LAB05.c: 142: RCSTA=0b10000000;
  2657   0013F6  0E80               	movlw	128
  2658   0013F8  6EAB               	movwf	171,c	;volatile
  2659                           
  2660                           ;LAB05.c: 143: BAUDCON=0b00000000;
  2661   0013FA  0E00               	movlw	0
  2662   0013FC  6EB8               	movwf	184,c	;volatile
  2663                           
  2664                           ;LAB05.c: 144: SPBRG=12;
  2665   0013FE  0E0C               	movlw	12
  2666   001400  6EAF               	movwf	175,c	;volatile
  2667                           
  2668                           ;LAB05.c: 147: ADCON1=13;
  2669   001402  0E0D               	movlw	13
  2670   001404  6EC1               	movwf	193,c	;volatile
  2671                           
  2672                           ;LAB05.c: 150: TRISE=0b11111000;
  2673   001406  0EF8               	movlw	248
  2674   001408  6E96               	movwf	150,c	;volatile
  2675                           
  2676                           ;LAB05.c: 151: LATE=1;
  2677   00140A  0E01               	movlw	1
  2678   00140C  6E8D               	movwf	141,c	;volatile
  2679                           
  2680                           ;LAB05.c: 156: TRISC2=0;
  2681   00140E  9494               	bcf	3988,2,c	;volatile
  2682                           
  2683                           ;LAB05.c: 157: LATC2=0;
  2684   001410  948B               	bcf	3979,2,c	;volatile
  2685                           
  2686                           ;LAB05.c: 160: TRISB0=0;
  2687   001412  9093               	bcf	3987,0,c	;volatile
  2688                           
  2689                           ;LAB05.c: 161: LATB0=0;
  2690   001414  908A               	bcf	3978,0,c	;volatile
  2691                           
  2692                           ;LAB05.c: 165: ADCON0=0b00000100;
  2693   001416  0E04               	movlw	4
  2694   001418  6EC2               	movwf	194,c	;volatile
  2695                           
  2696                           ;LAB05.c: 167: ADCON2=0b11001001;
  2697   00141A  0EC9               	movlw	201
  2698   00141C  6EC0               	movwf	192,c	;volatile
  2699                           
  2700                           ;LAB05.c: 179: T0CON=0b00000100;
  2701   00141E  0E04               	movlw	4
  2702   001420  6ED5               	movwf	213,c	;volatile
  2703                           
  2704                           ;LAB05.c: 180: TMR0=3036;
  2705   001422  0E0B               	movlw	11
  2706   001424  6ED7               	movwf	215,c	;volatile
  2707   001426  0EDC               	movlw	220
  2708   001428  6ED6               	movwf	214,c	;volatile
  2709                           
  2710                           ;LAB05.c: 184: TMR0IF=0;
  2711   00142A  94F2               	bcf	4082,2,c	;volatile
  2712                           
  2713                           ;LAB05.c: 185: TMR0IE=1;
  2714   00142C  8AF2               	bsf	4082,5,c	;volatile
  2715                           
  2716                           ;LAB05.c: 186: GIE=1;
  2717   00142E  8EF2               	bsf	4082,7,c	;volatile
  2718                           
  2719                           ;LAB05.c: 188: TMR0ON=1;
  2720   001430  8ED5               	bsf	4053,7,c	;volatile
  2721                           
  2722                           ;LAB05.c: 191: TRISD=0;
  2723   001432  0E00               	movlw	0
  2724   001434  6E95               	movwf	149,c	;volatile
  2725                           
  2726                           ;LAB05.c: 192: LATD=0;
  2727   001436  0E00               	movlw	0
  2728   001438  6E8C               	movwf	140,c	;volatile
  2729                           
  2730                           ;LAB05.c: 193: ConfiguraLCD(4);
  2731   00143A  0E04               	movlw	4
  2732   00143C  EC55  F00C         	call	_ConfiguraLCD
  2733                           
  2734                           ;LAB05.c: 194: InicializaLCD();
  2735   001440  ECDA  F008         	call	_InicializaLCD	;wreg free
  2736                           
  2737                           ;LAB05.c: 195: _delay((unsigned long)((1000)*(8000000/4000.0)));
  2738   001444  0E0B               	movlw	11
  2739   001446  6E06               	movwf	(??_init_configuration+1)^0,c
  2740   001448  0E26               	movlw	38
  2741   00144A  6E05               	movwf	??_init_configuration^0,c
  2742   00144C  0E5E               	movlw	94
  2743   00144E                     u2647:
  2744   00144E  2EE8               	decfsz	wreg,f,c
  2745   001450  D7FE               	bra	u2647
  2746   001452  2E05               	decfsz	??_init_configuration^0,f,c
  2747   001454  D7FC               	bra	u2647
  2748   001456  2E06               	decfsz	(??_init_configuration+1)^0,f,c
  2749   001458  D7FA               	bra	u2647
  2750   00145A  0012               	return		;funcret
  2751   00145C                     __end_of_init_configuration:
  2752                           	callstack 0
  2753                           
  2754 ;; *************** function _InicializaLCD *****************
  2755 ;; Defined at:
  2756 ;;		line 71 in file "/home/esteban/Esteban/UN/semester12/Microcontroladores/MPLAB_X_IDE/lab05_ADC.X/LibLCDXC8.h"
  2757 ;; Parameters:    Size  Location     Type
  2758 ;;		None
  2759 ;; Auto vars:     Size  Location     Type
  2760 ;;		None
  2761 ;; Return value:  Size  Location     Type
  2762 ;;                  1    wreg      void 
  2763 ;; Registers used:
  2764 ;;		wreg, status,2, status,0, cstack
  2765 ;; Tracked objects:
  2766 ;;		On entry : 0/0
  2767 ;;		On exit  : 0/0
  2768 ;;		Unchanged: 0/0
  2769 ;; Data sizes:     COMRAM   BANK0   BANK1   BANK2   BANK3   BANK4   BANK5   BANK6   BANK7
  2770 ;;      Params:         0       0       0       0       0       0       0       0       0
  2771 ;;      Locals:         0       0       0       0       0       0       0       0       0
  2772 ;;      Temps:          0       0       0       0       0       0       0       0       0
  2773 ;;      Totals:         0       0       0       0       0       0       0       0       0
  2774 ;;Total ram usage:        0 bytes
  2775 ;; Hardware stack levels used: 1
  2776 ;; Hardware stack levels required when called: 4
  2777 ;; This function calls:
  2778 ;;		_BorraLCD
  2779 ;;		_EnviaDato
  2780 ;;		_HabilitaLCD
  2781 ;;		_RetardoLCD
  2782 ;; This function is called by:
  2783 ;;		_init_configuration
  2784 ;; This function uses a non-reentrant model
  2785 ;;
  2786                           
  2787                           	psect	text20
  2788   0011B4                     __ptext20:
  2789                           	callstack 0
  2790   0011B4                     _InicializaLCD:
  2791                           	callstack 25
  2792                           
  2793                           ;LibLCDXC8.h: 73: LATD0=0;
  2794                           
  2795                           ;incstack = 0
  2796   0011B4  908C               	bcf	3980,0,c	;volatile
  2797                           
  2798                           ;LibLCDXC8.h: 74: if(interfaz==4)
  2799   0011B6  0E04               	movlw	4
  2800   0011B8  184C               	xorwf	_interfaz^0,w,c
  2801   0011BA  A4D8               	btfss	status,2,c
  2802   0011BC  D004               	goto	l2262
  2803                           
  2804                           ;LibLCDXC8.h: 75: LATD=(LATD & 0b00001111) | 0x30;
  2805   0011BE  508C               	movf	140,w,c	;volatile
  2806   0011C0  0B0F               	andlw	15
  2807   0011C2  0930               	iorlw	48
  2808   0011C4  D001               	goto	L1
  2809   0011C6                     l2262:
  2810                           
  2811                           ;LibLCDXC8.h: 76: else;LibLCDXC8.h: 77: LATD=0x3F;
  2812   0011C6  0E3F               	movlw	63
  2813   0011C8                     L1:
  2814   0011C8  6E8C               	movwf	140,c	;volatile
  2815                           
  2816                           ;LibLCDXC8.h: 78: HabilitaLCD();
  2817   0011CA  EC89  F00C         	call	_HabilitaLCD	;wreg free
  2818                           
  2819                           ;LibLCDXC8.h: 79: RetardoLCD(1);
  2820   0011CE  0E01               	movlw	1
  2821   0011D0  EC97  F00A         	call	_RetardoLCD
  2822                           
  2823                           ;LibLCDXC8.h: 80: if(interfaz==4)
  2824   0011D4  0E04               	movlw	4
  2825   0011D6  184C               	xorwf	_interfaz^0,w,c
  2826   0011D8  A4D8               	btfss	status,2,c
  2827   0011DA  D004               	goto	l2272
  2828                           
  2829                           ;LibLCDXC8.h: 81: LATD=(LATD & 0b00001111) | 0x30;
  2830   0011DC  508C               	movf	140,w,c	;volatile
  2831   0011DE  0B0F               	andlw	15
  2832   0011E0  0930               	iorlw	48
  2833   0011E2  D001               	goto	L2
  2834   0011E4                     l2272:
  2835                           
  2836                           ;LibLCDXC8.h: 82: else;LibLCDXC8.h: 83: LATD=0x3F;
  2837   0011E4  0E3F               	movlw	63
  2838   0011E6                     L2:
  2839   0011E6  6E8C               	movwf	140,c	;volatile
  2840                           
  2841                           ;LibLCDXC8.h: 84: HabilitaLCD();
  2842   0011E8  EC89  F00C         	call	_HabilitaLCD	;wreg free
  2843                           
  2844                           ;LibLCDXC8.h: 85: RetardoLCD(3);
  2845   0011EC  0E03               	movlw	3
  2846   0011EE  EC97  F00A         	call	_RetardoLCD
  2847                           
  2848                           ;LibLCDXC8.h: 86: if(interfaz==4)
  2849   0011F2  0E04               	movlw	4
  2850   0011F4  184C               	xorwf	_interfaz^0,w,c
  2851   0011F6  A4D8               	btfss	status,2,c
  2852   0011F8  D004               	goto	l2282
  2853                           
  2854                           ;LibLCDXC8.h: 87: LATD=(LATD & 0b00001111) | 0x30;
  2855   0011FA  508C               	movf	140,w,c	;volatile
  2856   0011FC  0B0F               	andlw	15
  2857   0011FE  0930               	iorlw	48
  2858   001200  D001               	goto	L3
  2859   001202                     l2282:
  2860                           
  2861                           ;LibLCDXC8.h: 88: else;LibLCDXC8.h: 89: LATD=0x3F;
  2862   001202  0E3F               	movlw	63
  2863   001204                     L3:
  2864   001204  6E8C               	movwf	140,c	;volatile
  2865                           
  2866                           ;LibLCDXC8.h: 90: HabilitaLCD();
  2867   001206  EC89  F00C         	call	_HabilitaLCD	;wreg free
  2868                           
  2869                           ;LibLCDXC8.h: 91: RetardoLCD(4);
  2870   00120A  0E04               	movlw	4
  2871   00120C  EC97  F00A         	call	_RetardoLCD
  2872                           
  2873                           ;LibLCDXC8.h: 92: if(interfaz==4){
  2874   001210  0E04               	movlw	4
  2875   001212  184C               	xorwf	_interfaz^0,w,c
  2876   001214  A4D8               	btfss	status,2,c
  2877   001216  D011               	goto	l2302
  2878                           
  2879                           ;LibLCDXC8.h: 93: LATD=(LATD & 0b00001111) | 0x20;
  2880   001218  508C               	movf	140,w,c	;volatile
  2881   00121A  0B0F               	andlw	15
  2882   00121C  0920               	iorlw	32
  2883   00121E  6E8C               	movwf	140,c	;volatile
  2884                           
  2885                           ;LibLCDXC8.h: 94: HabilitaLCD();
  2886   001220  EC89  F00C         	call	_HabilitaLCD	;wreg free
  2887                           
  2888                           ;LibLCDXC8.h: 95: RetardoLCD(4);
  2889   001224  0E04               	movlw	4
  2890   001226  EC97  F00A         	call	_RetardoLCD
  2891                           
  2892                           ;LibLCDXC8.h: 96: EnviaDato(0x2F);
  2893   00122A  0E2F               	movlw	47
  2894   00122C  EC46  F00B         	call	_EnviaDato
  2895                           
  2896                           ;LibLCDXC8.h: 97: HabilitaLCD();
  2897   001230  EC89  F00C         	call	_HabilitaLCD	;wreg free
  2898                           
  2899                           ;LibLCDXC8.h: 98: RetardoLCD(4);
  2900   001234  0E04               	movlw	4
  2901   001236  EC97  F00A         	call	_RetardoLCD
  2902   00123A                     l2302:
  2903                           
  2904                           ;LibLCDXC8.h: 99: };LibLCDXC8.h: 100: BorraLCD();
  2905   00123A  EC77  F00C         	call	_BorraLCD	;wreg free
  2906                           
  2907                           ;LibLCDXC8.h: 101: EnviaDato(0xF);
  2908   00123E  0E0F               	movlw	15
  2909   001240  EC46  F00B         	call	_EnviaDato
  2910                           
  2911                           ;LibLCDXC8.h: 102: HabilitaLCD();
  2912   001244  EC89  F00C         	call	_HabilitaLCD	;wreg free
  2913                           
  2914                           ;LibLCDXC8.h: 103: RetardoLCD(4);
  2915   001248  0E04               	movlw	4
  2916   00124A  EC97  F00A         	call	_RetardoLCD
  2917   00124E  0012               	return		;funcret
  2918   001250                     __end_of_InicializaLCD:
  2919                           	callstack 0
  2920                           
  2921 ;; *************** function _BorraLCD *****************
  2922 ;; Defined at:
  2923 ;;		line 112 in file "/home/esteban/Esteban/UN/semester12/Microcontroladores/MPLAB_X_IDE/lab05_ADC.X/LibLCDXC8.h"
  2924 ;; Parameters:    Size  Location     Type
  2925 ;;		None
  2926 ;; Auto vars:     Size  Location     Type
  2927 ;;		None
  2928 ;; Return value:  Size  Location     Type
  2929 ;;                  1    wreg      void 
  2930 ;; Registers used:
  2931 ;;		wreg, status,2, status,0, cstack
  2932 ;; Tracked objects:
  2933 ;;		On entry : 0/0
  2934 ;;		On exit  : 0/0
  2935 ;;		Unchanged: 0/0
  2936 ;; Data sizes:     COMRAM   BANK0   BANK1   BANK2   BANK3   BANK4   BANK5   BANK6   BANK7
  2937 ;;      Params:         0       0       0       0       0       0       0       0       0
  2938 ;;      Locals:         0       0       0       0       0       0       0       0       0
  2939 ;;      Temps:          0       0       0       0       0       0       0       0       0
  2940 ;;      Totals:         0       0       0       0       0       0       0       0       0
  2941 ;;Total ram usage:        0 bytes
  2942 ;; Hardware stack levels used: 1
  2943 ;; Hardware stack levels required when called: 3
  2944 ;; This function calls:
  2945 ;;		_EnviaDato
  2946 ;;		_HabilitaLCD
  2947 ;;		_RetardoLCD
  2948 ;; This function is called by:
  2949 ;;		_InicializaLCD
  2950 ;;		_MensajeLCD_Var
  2951 ;;		_welcome_operations
  2952 ;; This function uses a non-reentrant model
  2953 ;;
  2954                           
  2955                           	psect	text21
  2956   0018EE                     __ptext21:
  2957                           	callstack 0
  2958   0018EE                     _BorraLCD:
  2959                           	callstack 25
  2960                           
  2961                           ;LibLCDXC8.h: 114: LATD0=0;
  2962                           
  2963                           ;incstack = 0
  2964   0018EE  908C               	bcf	3980,0,c	;volatile
  2965                           
  2966                           ;LibLCDXC8.h: 115: EnviaDato(0x01);
  2967   0018F0  0E01               	movlw	1
  2968   0018F2  EC46  F00B         	call	_EnviaDato
  2969                           
  2970                           ;LibLCDXC8.h: 116: HabilitaLCD();
  2971   0018F6  EC89  F00C         	call	_HabilitaLCD	;wreg free
  2972                           
  2973                           ;LibLCDXC8.h: 117: RetardoLCD(2);
  2974   0018FA  0E02               	movlw	2
  2975   0018FC  EC97  F00A         	call	_RetardoLCD
  2976   001900  0012               	return		;funcret
  2977   001902                     __end_of_BorraLCD:
  2978                           	callstack 0
  2979                           
  2980 ;; *************** function _EnviaDato *****************
  2981 ;; Defined at:
  2982 ;;		line 59 in file "/home/esteban/Esteban/UN/semester12/Microcontroladores/MPLAB_X_IDE/lab05_ADC.X/LibLCDXC8.h"
  2983 ;; Parameters:    Size  Location     Type
  2984 ;;  a               1    wreg     unsigned char 
  2985 ;; Auto vars:     Size  Location     Type
  2986 ;;  a               1    3[COMRAM] unsigned char 
  2987 ;; Return value:  Size  Location     Type
  2988 ;;                  1    wreg      void 
  2989 ;; Registers used:
  2990 ;;		wreg, status,2, status,0, cstack
  2991 ;; Tracked objects:
  2992 ;;		On entry : 0/0
  2993 ;;		On exit  : 0/0
  2994 ;;		Unchanged: 0/0
  2995 ;; Data sizes:     COMRAM   BANK0   BANK1   BANK2   BANK3   BANK4   BANK5   BANK6   BANK7
  2996 ;;      Params:         0       0       0       0       0       0       0       0       0
  2997 ;;      Locals:         1       0       0       0       0       0       0       0       0
  2998 ;;      Temps:          1       0       0       0       0       0       0       0       0
  2999 ;;      Totals:         2       0       0       0       0       0       0       0       0
  3000 ;;Total ram usage:        2 bytes
  3001 ;; Hardware stack levels used: 1
  3002 ;; Hardware stack levels required when called: 2
  3003 ;; This function calls:
  3004 ;;		_HabilitaLCD
  3005 ;;		_RetardoLCD
  3006 ;; This function is called by:
  3007 ;;		_InicializaLCD
  3008 ;;		_BorraLCD
  3009 ;;		_EscribeLCD_c
  3010 ;;		_EscribeLCD_n8
  3011 ;;		_DireccionaLCD
  3012 ;; This function uses a non-reentrant model
  3013 ;;
  3014                           
  3015                           	psect	text22
  3016   00168C                     __ptext22:
  3017                           	callstack 0
  3018   00168C                     _EnviaDato:
  3019                           	callstack 25
  3020                           
  3021                           ;incstack = 0
  3022                           ;EnviaDato@a stored from wreg
  3023   00168C  6E04               	movwf	EnviaDato@a^0,c
  3024                           
  3025                           ;LibLCDXC8.h: 60: if(interfaz==4){
  3026   00168E  0E04               	movlw	4
  3027   001690  184C               	xorwf	_interfaz^0,w,c
  3028   001692  A4D8               	btfss	status,2,c
  3029   001694  D017               	goto	l2108
  3030                           
  3031                           ;LibLCDXC8.h: 61: LATD=(LATD & 0b00001111) | (a & 0b11110000);
  3032   001696  C004  F003         	movff	EnviaDato@a,??_EnviaDato
  3033   00169A  0EF0               	movlw	240
  3034   00169C  1603               	andwf	??_EnviaDato^0,f,c
  3035   00169E  508C               	movf	140,w,c	;volatile
  3036   0016A0  0B0F               	andlw	15
  3037   0016A2  1003               	iorwf	??_EnviaDato^0,w,c
  3038   0016A4  6E8C               	movwf	140,c	;volatile
  3039                           
  3040                           ;LibLCDXC8.h: 62: HabilitaLCD();
  3041   0016A6  EC89  F00C         	call	_HabilitaLCD	;wreg free
  3042                           
  3043                           ;LibLCDXC8.h: 63: RetardoLCD(1);
  3044   0016AA  0E01               	movlw	1
  3045   0016AC  EC97  F00A         	call	_RetardoLCD
  3046                           
  3047                           ;LibLCDXC8.h: 64: LATD=(LATD & 0b00001111) | (a<<4);
  3048   0016B0  C004  F003         	movff	EnviaDato@a,??_EnviaDato
  3049   0016B4  3A03               	swapf	??_EnviaDato^0,f,c
  3050   0016B6  0EF0               	movlw	240
  3051   0016B8  1603               	andwf	??_EnviaDato^0,f,c
  3052   0016BA  508C               	movf	140,w,c	;volatile
  3053   0016BC  0B0F               	andlw	15
  3054   0016BE  1003               	iorwf	??_EnviaDato^0,w,c
  3055   0016C0  6E8C               	movwf	140,c	;volatile
  3056                           
  3057                           ;LibLCDXC8.h: 67: }else if(interfaz==8){
  3058   0016C2  0012               	return	
  3059   0016C4                     l2108:
  3060   0016C4  0E08               	movlw	8
  3061   0016C6  184C               	xorwf	_interfaz^0,w,c
  3062   0016C8  A4D8               	btfss	status,2,c
  3063   0016CA  0012               	return	
  3064                           
  3065                           ;LibLCDXC8.h: 68: LATD=a;
  3066   0016CC  C004  FF8C         	movff	EnviaDato@a,3980	;volatile
  3067   0016D0  0012               	return		;funcret
  3068   0016D2                     __end_of_EnviaDato:
  3069                           	callstack 0
  3070                           
  3071 ;; *************** function _RetardoLCD *****************
  3072 ;; Defined at:
  3073 ;;		line 295 in file "/home/esteban/Esteban/UN/semester12/Microcontroladores/MPLAB_X_IDE/lab05_ADC.X/LibLCDXC8.h"
  3074 ;; Parameters:    Size  Location     Type
  3075 ;;  a               1    wreg     unsigned char 
  3076 ;; Auto vars:     Size  Location     Type
  3077 ;;  a               1    1[COMRAM] unsigned char 
  3078 ;; Return value:  Size  Location     Type
  3079 ;;                  1    wreg      void 
  3080 ;; Registers used:
  3081 ;;		wreg, status,2, status,0
  3082 ;; Tracked objects:
  3083 ;;		On entry : 0/0
  3084 ;;		On exit  : 0/0
  3085 ;;		Unchanged: 0/0
  3086 ;; Data sizes:     COMRAM   BANK0   BANK1   BANK2   BANK3   BANK4   BANK5   BANK6   BANK7
  3087 ;;      Params:         0       0       0       0       0       0       0       0       0
  3088 ;;      Locals:         1       0       0       0       0       0       0       0       0
  3089 ;;      Temps:          1       0       0       0       0       0       0       0       0
  3090 ;;      Totals:         2       0       0       0       0       0       0       0       0
  3091 ;;Total ram usage:        2 bytes
  3092 ;; Hardware stack levels used: 1
  3093 ;; Hardware stack levels required when called: 1
  3094 ;; This function calls:
  3095 ;;		Nothing
  3096 ;; This function is called by:
  3097 ;;		_EnviaDato
  3098 ;;		_InicializaLCD
  3099 ;;		_BorraLCD
  3100 ;;		_EscribeLCD_c
  3101 ;;		_EscribeLCD_n8
  3102 ;;		_DireccionaLCD
  3103 ;; This function uses a non-reentrant model
  3104 ;;
  3105                           
  3106                           	psect	text23
  3107   00152E                     __ptext23:
  3108                           	callstack 0
  3109   00152E                     _RetardoLCD:
  3110                           	callstack 26
  3111                           
  3112                           ;incstack = 0
  3113                           ;RetardoLCD@a stored from wreg
  3114   00152E  6E02               	movwf	RetardoLCD@a^0,c
  3115                           
  3116                           ;LibLCDXC8.h: 296: switch(a){
  3117   001530  D023               	goto	l2096
  3118   001532                     l2086:
  3119   001532  0E27               	movlw	39
  3120   001534  6E01               	movwf	??_RetardoLCD^0,c
  3121   001536  0EF5               	movlw	245
  3122   001538                     u2657:
  3123   001538  2EE8               	decfsz	wreg,f,c
  3124   00153A  D7FE               	bra	u2657
  3125   00153C  2E01               	decfsz	??_RetardoLCD^0,f,c
  3126   00153E  D7FC               	bra	u2657
  3127   001540  F000               	nop	
  3128                           
  3129                           ;LibLCDXC8.h: 299: break;
  3130   001542  0012               	return	
  3131   001544                     l2088:
  3132   001544  0E03               	movlw	3
  3133   001546  6E01               	movwf	??_RetardoLCD^0,c
  3134   001548  0E98               	movlw	152
  3135   00154A                     u2667:
  3136   00154A  2EE8               	decfsz	wreg,f,c
  3137   00154C  D7FE               	bra	u2667
  3138   00154E  2E01               	decfsz	??_RetardoLCD^0,f,c
  3139   001550  D7FC               	bra	u2667
  3140                           
  3141                           ;LibLCDXC8.h: 301: _delay((unsigned long)((640)*(8000000/4000000.0)));
  3142   001552  0EB6               	movlw	182
  3143   001554                     u2677:
  3144   001554  D000               	nop2	
  3145   001556  D000               	nop2	
  3146   001558  2EE8               	decfsz	wreg,f,c
  3147   00155A  D7FC               	bra	u2677
  3148   00155C  D000               	nop2	
  3149   00155E  D000               	nop2	
  3150   001560  D000               	nop2	
  3151                           
  3152                           ;LibLCDXC8.h: 303: break;
  3153   001562  0012               	return	
  3154   001564                     l2090:
  3155   001564  0E42               	movlw	66
  3156   001566                     u2687:
  3157   001566  2EE8               	decfsz	wreg,f,c
  3158   001568  D7FE               	bra	u2687
  3159   00156A  D000               	nop2	
  3160                           
  3161                           ;LibLCDXC8.h: 306: break;
  3162   00156C  0012               	return	
  3163   00156E                     l2092:
  3164   00156E  0E1A               	movlw	26
  3165   001570                     u2697:
  3166   001570  2EE8               	decfsz	wreg,f,c
  3167   001572  D7FE               	bra	u2697
  3168   001574  D000               	nop2	
  3169                           
  3170                           ;LibLCDXC8.h: 309: break;
  3171   001576  0012               	return	
  3172   001578                     l2096:
  3173   001578  5002               	movf	RetardoLCD@a^0,w,c
  3174                           
  3175                           ; Switch size 1, requested type "simple"
  3176                           ; Number of cases is 4, Range of values is 1 to 4
  3177                           ; switch strategies available:
  3178                           ; Name         Instructions Cycles
  3179                           ; simple_byte           13     7 (average)
  3180                           ;	Chosen strategy is simple_byte
  3181   00157A  0A01               	xorlw	1	; case 1
  3182   00157C  B4D8               	btfsc	status,2,c
  3183   00157E  D7D9               	goto	l2086
  3184   001580  0A03               	xorlw	3	; case 2
  3185   001582  B4D8               	btfsc	status,2,c
  3186   001584  D7DF               	goto	l2088
  3187   001586  0A01               	xorlw	1	; case 3
  3188   001588  B4D8               	btfsc	status,2,c
  3189   00158A  D7EC               	goto	l2090
  3190   00158C  0A07               	xorlw	7	; case 4
  3191   00158E  A4D8               	btfss	status,2,c
  3192   001590  0012               	return	
  3193   001592  D7ED               	goto	l2092
  3194   001594                     __end_of_RetardoLCD:
  3195                           	callstack 0
  3196                           
  3197 ;; *************** function _HabilitaLCD *****************
  3198 ;; Defined at:
  3199 ;;		line 105 in file "/home/esteban/Esteban/UN/semester12/Microcontroladores/MPLAB_X_IDE/lab05_ADC.X/LibLCDXC8.h"
  3200 ;; Parameters:    Size  Location     Type
  3201 ;;		None
  3202 ;; Auto vars:     Size  Location     Type
  3203 ;;		None
  3204 ;; Return value:  Size  Location     Type
  3205 ;;                  1    wreg      void 
  3206 ;; Registers used:
  3207 ;;		wreg
  3208 ;; Tracked objects:
  3209 ;;		On entry : 0/0
  3210 ;;		On exit  : 0/0
  3211 ;;		Unchanged: 0/0
  3212 ;; Data sizes:     COMRAM   BANK0   BANK1   BANK2   BANK3   BANK4   BANK5   BANK6   BANK7
  3213 ;;      Params:         0       0       0       0       0       0       0       0       0
  3214 ;;      Locals:         0       0       0       0       0       0       0       0       0
  3215 ;;      Temps:          0       0       0       0       0       0       0       0       0
  3216 ;;      Totals:         0       0       0       0       0       0       0       0       0
  3217 ;;Total ram usage:        0 bytes
  3218 ;; Hardware stack levels used: 1
  3219 ;; Hardware stack levels required when called: 1
  3220 ;; This function calls:
  3221 ;;		Nothing
  3222 ;; This function is called by:
  3223 ;;		_EnviaDato
  3224 ;;		_InicializaLCD
  3225 ;;		_BorraLCD
  3226 ;;		_EscribeLCD_c
  3227 ;;		_EscribeLCD_n8
  3228 ;;		_DireccionaLCD
  3229 ;; This function uses a non-reentrant model
  3230 ;;
  3231                           
  3232                           	psect	text24
  3233   001912                     __ptext24:
  3234                           	callstack 0
  3235   001912                     _HabilitaLCD:
  3236                           	callstack 26
  3237                           
  3238                           ;LibLCDXC8.h: 107: LATD1=1;
  3239                           
  3240                           ;incstack = 0
  3241   001912  828C               	bsf	3980,1,c	;volatile
  3242                           
  3243                           ;LibLCDXC8.h: 108: _delay((unsigned long)((40)*(8000000/4000000.0)));
  3244   001914  0E1A               	movlw	26
  3245   001916                     u2707:
  3246   001916  2EE8               	decfsz	wreg,f,c
  3247   001918  D7FE               	bra	u2707
  3248   00191A  D000               	nop2	
  3249                           
  3250                           ;LibLCDXC8.h: 110: LATD1=0;
  3251   00191C  928C               	bcf	3980,1,c	;volatile
  3252   00191E  0012               	return		;funcret
  3253   001920                     __end_of_HabilitaLCD:
  3254                           	callstack 0
  3255                           
  3256 ;; *************** function _ConfiguraLCD *****************
  3257 ;; Defined at:
  3258 ;;		line 55 in file "/home/esteban/Esteban/UN/semester12/Microcontroladores/MPLAB_X_IDE/lab05_ADC.X/LibLCDXC8.h"
  3259 ;; Parameters:    Size  Location     Type
  3260 ;;  a               1    wreg     unsigned char 
  3261 ;; Auto vars:     Size  Location     Type
  3262 ;;  a               1    0[COMRAM] unsigned char 
  3263 ;; Return value:  Size  Location     Type
  3264 ;;                  1    wreg      void 
  3265 ;; Registers used:
  3266 ;;		wreg, status,2, status,0
  3267 ;; Tracked objects:
  3268 ;;		On entry : 0/0
  3269 ;;		On exit  : 0/0
  3270 ;;		Unchanged: 0/0
  3271 ;; Data sizes:     COMRAM   BANK0   BANK1   BANK2   BANK3   BANK4   BANK5   BANK6   BANK7
  3272 ;;      Params:         0       0       0       0       0       0       0       0       0
  3273 ;;      Locals:         1       0       0       0       0       0       0       0       0
  3274 ;;      Temps:          0       0       0       0       0       0       0       0       0
  3275 ;;      Totals:         1       0       0       0       0       0       0       0       0
  3276 ;;Total ram usage:        1 bytes
  3277 ;; Hardware stack levels used: 1
  3278 ;; Hardware stack levels required when called: 1
  3279 ;; This function calls:
  3280 ;;		Nothing
  3281 ;; This function is called by:
  3282 ;;		_init_configuration
  3283 ;; This function uses a non-reentrant model
  3284 ;;
  3285                           
  3286                           	psect	text25
  3287   0018AA                     __ptext25:
  3288                           	callstack 0
  3289   0018AA                     _ConfiguraLCD:
  3290                           	callstack 28
  3291                           
  3292                           ;incstack = 0
  3293                           ;ConfiguraLCD@a stored from wreg
  3294   0018AA  6E01               	movwf	ConfiguraLCD@a^0,c
  3295                           
  3296                           ;LibLCDXC8.h: 56: if(a==4 | a ==8)
  3297   0018AC  0E04               	movlw	4
  3298   0018AE  1801               	xorwf	ConfiguraLCD@a^0,w,c
  3299   0018B0  B4D8               	btfsc	status,2,c
  3300   0018B2  D004               	goto	u1500
  3301   0018B4  0E08               	movlw	8
  3302   0018B6  1801               	xorwf	ConfiguraLCD@a^0,w,c
  3303   0018B8  A4D8               	btfss	status,2,c
  3304   0018BA  0012               	return	
  3305   0018BC                     u1500:
  3306                           
  3307                           ;LibLCDXC8.h: 57: interfaz=a;
  3308   0018BC  C001  F04C         	movff	ConfiguraLCD@a,_interfaz
  3309   0018C0  0012               	return		;funcret
  3310   0018C2                     __end_of_ConfiguraLCD:
  3311                           	callstack 0
  3312                           
  3313 ;; *************** function _choose_scale_temperature_and_fill_buffers *****************
  3314 ;; Defined at:
  3315 ;;		line 348 in file "/home/esteban/Esteban/UN/semester12/Microcontroladores/MPLAB_X_IDE/lab05_ADC.X/LAB05.c"
  3316 ;; Parameters:    Size  Location     Type
  3317 ;;  buffer_LCD_r    1   69[COMRAM] PTR unsigned char 
  3318 ;;		 -> main@buffer_LCD_row_1(17), 
  3319 ;;  buffer_LCD_r    1   70[COMRAM] PTR unsigned char 
  3320 ;;		 -> main@buffer_LCD_row_2(17), 
  3321 ;; Auto vars:     Size  Location     Type
  3322 ;;  temp_convert    2   72[COMRAM] int 
  3323 ;; Return value:  Size  Location     Type
  3324 ;;                  1    wreg      void 
  3325 ;; Registers used:
  3326 ;;		wreg, fsr2l, fsr2h, status,2, status,0, tblptrl, tblptrh, tblptru, prodl, prodh, cstack
  3327 ;; Tracked objects:
  3328 ;;		On entry : 0/0
  3329 ;;		On exit  : 0/0
  3330 ;;		Unchanged: 0/0
  3331 ;; Data sizes:     COMRAM   BANK0   BANK1   BANK2   BANK3   BANK4   BANK5   BANK6   BANK7
  3332 ;;      Params:         2       0       0       0       0       0       0       0       0
  3333 ;;      Locals:         2       0       0       0       0       0       0       0       0
  3334 ;;      Temps:          1       0       0       0       0       0       0       0       0
  3335 ;;      Totals:         5       0       0       0       0       0       0       0       0
  3336 ;;Total ram usage:        5 bytes
  3337 ;; Hardware stack levels used: 1
  3338 ;; Hardware stack levels required when called: 3
  3339 ;; This function calls:
  3340 ;;		___ftadd
  3341 ;;		___ftdiv
  3342 ;;		___ftmul
  3343 ;;		___fttol
  3344 ;;		___lbtoft
  3345 ;;		_sprintf
  3346 ;; This function is called by:
  3347 ;;		_main
  3348 ;; This function uses a non-reentrant model
  3349 ;;
  3350                           
  3351                           	psect	text26
  3352   000878                     __ptext26:
  3353                           	callstack 0
  3354   000878                     _choose_scale_temperature_and_fill_buffers:
  3355                           	callstack 27
  3356                           
  3357                           ;LAB05.c: 351: _delay((unsigned long)((10)*(8000000/4000.0)));
  3358                           
  3359                           ;incstack = 0
  3360   000878  0E1A               	movlw	26
  3361   00087A  6E48               	movwf	??_choose_scale_temperature_and_fill_buffers^0,c
  3362   00087C  0EF8               	movlw	248
  3363   00087E                     u2717:
  3364   00087E  2EE8               	decfsz	wreg,f,c
  3365   000880  D7FE               	bra	u2717
  3366   000882  2E48               	decfsz	??_choose_scale_temperature_and_fill_buffers^0,f,c
  3367   000884  D7FC               	bra	u2717
  3368   000886  D000               	nop2	
  3369                           
  3370                           ;LAB05.c: 352: if(RA2==0 && RA3==0){
  3371   000888  A480               	btfss	3968,2,c	;volatile
  3372   00088A  B680               	btfsc	3968,3,c	;volatile
  3373   00088C  D01A               	goto	l328
  3374                           
  3375                           ;LAB05.c: 354: sprintf(buffer_LCD_row_1, "T: %i C",Temp);
  3376   00088E  C046  F00D         	movff	choose_scale_temperature_and_fill_buffers@buffer_LCD_row_1,sprintf@sp
  3377   000892  0E51               	movlw	low STR_7
  3378   000894  6E0E               	movwf	sprintf@f^0,c
  3379   000896  C088  F00F         	movff	_Temp,?_sprintf+2
  3380   00089A  6A10               	clrf	(?_sprintf+3)^0,c
  3381   00089C  EC14  F006         	call	_sprintf	;wreg free
  3382                           
  3383                           ;LAB05.c: 355: sprintf(buffer_LCD_row_2, "H: %i %c",Hum,37);
  3384   0008A0  C047  F00D         	movff	choose_scale_temperature_and_fill_buffers@buffer_LCD_row_2,sprintf@sp
  3385   0008A4  0E48               	movlw	low STR_8
  3386   0008A6  6E0E               	movwf	sprintf@f^0,c
  3387   0008A8  C087  F00F         	movff	_Hum,?_sprintf+2
  3388   0008AC  6A10               	clrf	(?_sprintf+3)^0,c
  3389   0008AE  0E00               	movlw	0
  3390   0008B0  6E12               	movwf	(?_sprintf+5)^0,c
  3391   0008B2  0E25               	movlw	37
  3392   0008B4  6E11               	movwf	(?_sprintf+4)^0,c
  3393   0008B6  EC14  F006         	call	_sprintf	;wreg free
  3394                           
  3395                           ;LAB05.c: 357: Scale_Temperature=0;
  3396   0008BA  0E00               	movlw	0
  3397   0008BC  0100               	movlb	0	; () banked
  3398   0008BE  6F85               	movwf	_Scale_Temperature& (0+255),b
  3399                           
  3400                           ;LAB05.c: 358: }
  3401   0008C0  0012               	return	
  3402   0008C2                     l328:
  3403                           
  3404                           ;LAB05.c: 359: else if(RA2==0 && RA3==1){
  3405   0008C2  A480               	btfss	3968,2,c	;volatile
  3406   0008C4  A680               	btfss	3968,3,c	;volatile
  3407   0008C6  D039               	goto	l330
  3408                           
  3409                           ;LAB05.c: 361: temp_converted = Temp + 273.15;
  3410   0008C8  0E93               	movlw	147
  3411   0008CA  6E2E               	movwf	___ftadd@f2^0,c
  3412   0008CC  0E88               	movlw	136
  3413   0008CE  6E2F               	movwf	(___ftadd@f2+1)^0,c
  3414   0008D0  0E43               	movlw	67
  3415   0008D2  6E30               	movwf	(___ftadd@f2+2)^0,c
  3416   0008D4  0100               	movlb	0	; () banked
  3417   0008D6  5188               	movf	_Temp& (0+255),w,b
  3418   0008D8  EC11  F00C         	call	___lbtoft
  3419   0008DC  C009  F02B         	movff	?___lbtoft,___ftadd@f1
  3420   0008E0  C00A  F02C         	movff	?___lbtoft+1,___ftadd@f1+1
  3421   0008E4  C00B  F02D         	movff	?___lbtoft+2,___ftadd@f1+2
  3422   0008E8  EC40  F005         	call	___ftadd	;wreg free
  3423   0008EC  C02B  F037         	movff	?___ftadd,___fttol@f1
  3424   0008F0  C02C  F038         	movff	?___ftadd+1,___fttol@f1+1
  3425   0008F4  C02D  F039         	movff	?___ftadd+2,___fttol@f1+2
  3426   0008F8  EC1A  F008         	call	___fttol	;wreg free
  3427   0008FC  C037  F049         	movff	?___fttol,choose_scale_temperature_and_fill_buffers@temp_converted
  3428   000900  C038  F04A         	movff	?___fttol+1,choose_scale_temperature_and_fill_buffers@temp_converted+1
  3429                           
  3430                           ;LAB05.c: 363: sprintf(buffer_LCD_row_1, "T: %i K",temp_converted);
  3431   000904  C046  F00D         	movff	choose_scale_temperature_and_fill_buffers@buffer_LCD_row_1,sprintf@sp
  3432   000908  0E61               	movlw	low STR_9
  3433   00090A  6E0E               	movwf	sprintf@f^0,c
  3434   00090C  C049  F00F         	movff	choose_scale_temperature_and_fill_buffers@temp_converted,?_sprintf+2
  3435   000910  C04A  F010         	movff	choose_scale_temperature_and_fill_buffers@temp_converted+1,?_sprintf+3
  3436   000914  EC14  F006         	call	_sprintf	;wreg free
  3437                           
  3438                           ;LAB05.c: 364: sprintf(buffer_LCD_row_2, "H: %i %c",Hum,37);
  3439   000918  C047  F00D         	movff	choose_scale_temperature_and_fill_buffers@buffer_LCD_row_2,sprintf@sp
  3440   00091C  0E48               	movlw	low STR_8
  3441   00091E  6E0E               	movwf	sprintf@f^0,c
  3442   000920  C087  F00F         	movff	_Hum,?_sprintf+2
  3443   000924  6A10               	clrf	(?_sprintf+3)^0,c
  3444   000926  0E00               	movlw	0
  3445   000928  6E12               	movwf	(?_sprintf+5)^0,c
  3446   00092A  0E25               	movlw	37
  3447   00092C  6E11               	movwf	(?_sprintf+4)^0,c
  3448   00092E  EC14  F006         	call	_sprintf	;wreg free
  3449                           
  3450                           ;LAB05.c: 366: Scale_Temperature=1;
  3451   000932  0E01               	movlw	1
  3452   000934  0100               	movlb	0	; () banked
  3453   000936  6F85               	movwf	_Scale_Temperature& (0+255),b
  3454                           
  3455                           ;LAB05.c: 367: }
  3456   000938  0012               	return	
  3457   00093A                     l330:
  3458                           
  3459                           ;LAB05.c: 368: else if(RA2==1 && RA3==0){
  3460   00093A  B480               	btfsc	3968,2,c	;volatile
  3461   00093C  B680               	btfsc	3968,3,c	;volatile
  3462   00093E  D047               	goto	l332
  3463                           
  3464                           ;LAB05.c: 370: temp_converted = Temp*1.8 + 491.67;
  3465   000940  0ED6               	movlw	214
  3466   000942  6E2E               	movwf	___ftadd@f2^0,c
  3467   000944  0EF5               	movlw	245
  3468   000946  6E2F               	movwf	(___ftadd@f2+1)^0,c
  3469   000948  0E43               	movlw	67
  3470   00094A  6E30               	movwf	(___ftadd@f2+2)^0,c
  3471   00094C  0E66               	movlw	102
  3472   00094E  6E10               	movwf	___ftmul@f2^0,c
  3473   000950  0EE6               	movlw	230
  3474   000952  6E11               	movwf	(___ftmul@f2+1)^0,c
  3475   000954  0E3F               	movlw	63
  3476   000956  6E12               	movwf	(___ftmul@f2+2)^0,c
  3477   000958  0100               	movlb	0	; () banked
  3478   00095A  5188               	movf	_Temp& (0+255),w,b
  3479   00095C  EC11  F00C         	call	___lbtoft
  3480   000960  C009  F00D         	movff	?___lbtoft,___ftmul@f1
  3481   000964  C00A  F00E         	movff	?___lbtoft+1,___ftmul@f1+1
  3482   000968  C00B  F00F         	movff	?___lbtoft+2,___ftmul@f1+2
  3483   00096C  ECBA  F006         	call	___ftmul	;wreg free
  3484   000970  C00D  F02B         	movff	?___ftmul,___ftadd@f1
  3485   000974  C00E  F02C         	movff	?___ftmul+1,___ftadd@f1+1
  3486   000978  C00F  F02D         	movff	?___ftmul+2,___ftadd@f1+2
  3487   00097C  EC40  F005         	call	___ftadd	;wreg free
  3488   000980  C02B  F037         	movff	?___ftadd,___fttol@f1
  3489   000984  C02C  F038         	movff	?___ftadd+1,___fttol@f1+1
  3490   000988  C02D  F039         	movff	?___ftadd+2,___fttol@f1+2
  3491   00098C  EC1A  F008         	call	___fttol	;wreg free
  3492   000990  C037  F049         	movff	?___fttol,choose_scale_temperature_and_fill_buffers@temp_converted
  3493   000994  C038  F04A         	movff	?___fttol+1,choose_scale_temperature_and_fill_buffers@temp_converted+1
  3494                           
  3495                           ;LAB05.c: 372: sprintf(buffer_LCD_row_1, "T: %i Ra",temp_converted);
  3496   000998  C046  F00D         	movff	choose_scale_temperature_and_fill_buffers@buffer_LCD_row_1,sprintf@sp
  3497   00099C  0E3F               	movlw	low STR_11
  3498   00099E  6E0E               	movwf	sprintf@f^0,c
  3499   0009A0  C049  F00F         	movff	choose_scale_temperature_and_fill_buffers@temp_converted,?_sprintf+2
  3500   0009A4  C04A  F010         	movff	choose_scale_temperature_and_fill_buffers@temp_converted+1,?_sprintf+3
  3501   0009A8  EC14  F006         	call	_sprintf	;wreg free
  3502                           
  3503                           ;LAB05.c: 373: sprintf(buffer_LCD_row_2, "H: %i %c",Hum,37);
  3504   0009AC  C047  F00D         	movff	choose_scale_temperature_and_fill_buffers@buffer_LCD_row_2,sprintf@sp
  3505   0009B0  0E48               	movlw	low STR_8
  3506   0009B2  6E0E               	movwf	sprintf@f^0,c
  3507   0009B4  C087  F00F         	movff	_Hum,?_sprintf+2
  3508   0009B8  6A10               	clrf	(?_sprintf+3)^0,c
  3509   0009BA  0E00               	movlw	0
  3510   0009BC  6E12               	movwf	(?_sprintf+5)^0,c
  3511   0009BE  0E25               	movlw	37
  3512   0009C0  6E11               	movwf	(?_sprintf+4)^0,c
  3513   0009C2  EC14  F006         	call	_sprintf	;wreg free
  3514                           
  3515                           ;LAB05.c: 375: Scale_Temperature=2;
  3516   0009C6  0E02               	movlw	2
  3517   0009C8  0100               	movlb	0	; () banked
  3518   0009CA  6F85               	movwf	_Scale_Temperature& (0+255),b
  3519                           
  3520                           ;LAB05.c: 377: }
  3521   0009CC  0012               	return	
  3522   0009CE                     l332:
  3523                           
  3524                           ;LAB05.c: 378: else if(RA2==1 && RA3==1){
  3525   0009CE  A480               	btfss	3968,2,c	;volatile
  3526   0009D0  0012               	return	
  3527   0009D2  A680               	btfss	3968,3,c	;volatile
  3528   0009D4  0012               	return	
  3529                           
  3530                           ;LAB05.c: 380: temp_converted = Temp*9.0/5.0 + 32.0;
  3531   0009D6  0E00               	movlw	0
  3532   0009D8  6E2E               	movwf	___ftadd@f2^0,c
  3533   0009DA  0E00               	movlw	0
  3534   0009DC  6E2F               	movwf	(___ftadd@f2+1)^0,c
  3535   0009DE  0E42               	movlw	66
  3536   0009E0  6E30               	movwf	(___ftadd@f2+2)^0,c
  3537   0009E2  0E00               	movlw	0
  3538   0009E4  6E1F               	movwf	___ftdiv@f2^0,c
  3539   0009E6  0EA0               	movlw	160
  3540   0009E8  6E20               	movwf	(___ftdiv@f2+1)^0,c
  3541   0009EA  0E40               	movlw	64
  3542   0009EC  6E21               	movwf	(___ftdiv@f2+2)^0,c
  3543   0009EE  0E00               	movlw	0
  3544   0009F0  6E10               	movwf	___ftmul@f2^0,c
  3545   0009F2  0E10               	movlw	16
  3546   0009F4  6E11               	movwf	(___ftmul@f2+1)^0,c
  3547   0009F6  0E41               	movlw	65
  3548   0009F8  6E12               	movwf	(___ftmul@f2+2)^0,c
  3549   0009FA  0100               	movlb	0	; () banked
  3550   0009FC  5188               	movf	_Temp& (0+255),w,b
  3551   0009FE  EC11  F00C         	call	___lbtoft
  3552   000A02  C009  F00D         	movff	?___lbtoft,___ftmul@f1
  3553   000A06  C00A  F00E         	movff	?___lbtoft+1,___ftmul@f1+1
  3554   000A0A  C00B  F00F         	movff	?___lbtoft+2,___ftmul@f1+2
  3555   000A0E  ECBA  F006         	call	___ftmul	;wreg free
  3556   000A12  C00D  F01C         	movff	?___ftmul,___ftdiv@f1
  3557   000A16  C00E  F01D         	movff	?___ftmul+1,___ftdiv@f1+1
  3558   000A1A  C00F  F01E         	movff	?___ftmul+2,___ftdiv@f1+2
  3559   000A1E  ECA7  F007         	call	___ftdiv	;wreg free
  3560   000A22  C01C  F02B         	movff	?___ftdiv,___ftadd@f1
  3561   000A26  C01D  F02C         	movff	?___ftdiv+1,___ftadd@f1+1
  3562   000A2A  C01E  F02D         	movff	?___ftdiv+2,___ftadd@f1+2
  3563   000A2E  EC40  F005         	call	___ftadd	;wreg free
  3564   000A32  C02B  F037         	movff	?___ftadd,___fttol@f1
  3565   000A36  C02C  F038         	movff	?___ftadd+1,___fttol@f1+1
  3566   000A3A  C02D  F039         	movff	?___ftadd+2,___fttol@f1+2
  3567   000A3E  EC1A  F008         	call	___fttol	;wreg free
  3568   000A42  C037  F049         	movff	?___fttol,choose_scale_temperature_and_fill_buffers@temp_converted
  3569   000A46  C038  F04A         	movff	?___fttol+1,choose_scale_temperature_and_fill_buffers@temp_converted+1
  3570                           
  3571                           ;LAB05.c: 382: sprintf(buffer_LCD_row_1, "T: %i F",temp_converted);
  3572   000A4A  C046  F00D         	movff	choose_scale_temperature_and_fill_buffers@buffer_LCD_row_1,sprintf@sp
  3573   000A4E  0E59               	movlw	low STR_13
  3574   000A50  6E0E               	movwf	sprintf@f^0,c
  3575   000A52  C049  F00F         	movff	choose_scale_temperature_and_fill_buffers@temp_converted,?_sprintf+2
  3576   000A56  C04A  F010         	movff	choose_scale_temperature_and_fill_buffers@temp_converted+1,?_sprintf+3
  3577   000A5A  EC14  F006         	call	_sprintf	;wreg free
  3578                           
  3579                           ;LAB05.c: 383: sprintf(buffer_LCD_row_2, "H: %i %c",Hum,37);
  3580   000A5E  C047  F00D         	movff	choose_scale_temperature_and_fill_buffers@buffer_LCD_row_2,sprintf@sp
  3581   000A62  0E48               	movlw	low STR_8
  3582   000A64  6E0E               	movwf	sprintf@f^0,c
  3583   000A66  C087  F00F         	movff	_Hum,?_sprintf+2
  3584   000A6A  6A10               	clrf	(?_sprintf+3)^0,c
  3585   000A6C  0E00               	movlw	0
  3586   000A6E  6E12               	movwf	(?_sprintf+5)^0,c
  3587   000A70  0E25               	movlw	37
  3588   000A72  6E11               	movwf	(?_sprintf+4)^0,c
  3589   000A74  EC14  F006         	call	_sprintf	;wreg free
  3590                           
  3591                           ;LAB05.c: 385: Scale_Temperature=3;
  3592   000A78  0E03               	movlw	3
  3593   000A7A  0100               	movlb	0	; () banked
  3594   000A7C  6F85               	movwf	_Scale_Temperature& (0+255),b
  3595   000A7E  0012               	return	
  3596   000A80                     __end_of_choose_scale_temperature_and_fill_buffers:
  3597                           	callstack 0
  3598                           
  3599 ;; *************** function _sprintf *****************
  3600 ;; Defined at:
  3601 ;;		line 505 in file "/opt/microchip/xc8/v2.41/pic/sources/c90/common/doprnt.c"
  3602 ;; Parameters:    Size  Location     Type
  3603 ;;  sp              1   12[COMRAM] PTR unsigned char 
  3604 ;;		 -> send_temperature_RS232@buffer_RS232(12), main@buffer_LCD_row_2(17), main@buffer_LCD_row_1(17), 
  3605 ;;  f               1   13[COMRAM] PTR const unsigned char 
  3606 ;;		 -> STR_15(9), STR_14(9), STR_13(8), STR_12(9), 
  3607 ;;		 -> STR_11(9), STR_10(9), STR_9(8), STR_8(9), 
  3608 ;;		 -> STR_7(8), 
  3609 ;; Auto vars:     Size  Location     Type
  3610 ;;  tmpval          4    0        struct .
  3611 ;;  cp              3    0        PTR const unsigned char 
  3612 ;;  val             2   22[COMRAM] unsigned int 
  3613 ;;  len             2    0        unsigned int 
  3614 ;;  c               1   24[COMRAM] unsigned char 
  3615 ;;  ap              1   21[COMRAM] PTR void [1]
  3616 ;;		 -> ?_sprintf(2), 
  3617 ;;  prec            1   20[COMRAM] char 
  3618 ;;  flag            1   19[COMRAM] unsigned char 
  3619 ;; Return value:  Size  Location     Type
  3620 ;;                  2   12[COMRAM] int 
  3621 ;; Registers used:
  3622 ;;		wreg, fsr2l, fsr2h, status,2, status,0, tblptrl, tblptrh, tblptru, prodl, prodh, cstack
  3623 ;; Tracked objects:
  3624 ;;		On entry : 0/0
  3625 ;;		On exit  : 0/0
  3626 ;;		Unchanged: 0/0
  3627 ;; Data sizes:     COMRAM   BANK0   BANK1   BANK2   BANK3   BANK4   BANK5   BANK6   BANK7
  3628 ;;      Params:         6       0       0       0       0       0       0       0       0
  3629 ;;      Locals:         6       0       0       0       0       0       0       0       0
  3630 ;;      Temps:          1       0       0       0       0       0       0       0       0
  3631 ;;      Totals:        13       0       0       0       0       0       0       0       0
  3632 ;;Total ram usage:       13 bytes
  3633 ;; Hardware stack levels used: 1
  3634 ;; Hardware stack levels required when called: 2
  3635 ;; This function calls:
  3636 ;;		___lwdiv
  3637 ;;		___lwmod
  3638 ;; This function is called by:
  3639 ;;		_choose_scale_temperature_and_fill_buffers
  3640 ;;		_send_temperature_RS232
  3641 ;; This function uses a non-reentrant model
  3642 ;;
  3643                           
  3644                           	psect	text27
  3645   000C28                     __ptext27:
  3646                           	callstack 0
  3647   000C28                     _sprintf:
  3648                           	callstack 27
  3649                           
  3650                           ;doprnt.c: 507: va_list ap;;doprnt.c: 512: char c;;doprnt.c: 521: signed char prec;;dopr
      +                          nt.c: 525: unsigned char flag;;doprnt.c: 540: union {;doprnt.c: 541: unsigned long vd;;d
      +                          oprnt.c: 542: double integ;;doprnt.c: 543: } tmpval;;doprnt.c: 545: unsigned int val;;do
      +                          prnt.c: 546: unsigned len;;doprnt.c: 547: const char * cp;;doprnt.c: 550: *ap = __va_sta
      +                          rt();
  3651                           
  3652                           ;incstack = 0
  3653   000C28  0E0F               	movlw	low (?_sprintf+2)
  3654   000C2A  6E16               	movwf	sprintf@ap^0,c
  3655                           
  3656                           ;doprnt.c: 553: while((c = *f++)) {
  3657   000C2C  D091               	goto	u1840
  3658   000C2E                     l2436:
  3659                           
  3660                           ;doprnt.c: 555: if(c != '%')
  3661   000C2E  0E25               	movlw	37
  3662   000C30  1819               	xorwf	sprintf@c^0,w,c
  3663   000C32  B4D8               	btfsc	status,2,c
  3664   000C34  D007               	goto	l2442
  3665   000C36                     u1790:
  3666                           
  3667                           ;doprnt.c: 557: {;doprnt.c: 558: ((*sp++ = (c)));
  3668   000C36  500D               	movf	sprintf@sp^0,w,c
  3669   000C38  6ED9               	movwf	fsr2l,c
  3670   000C3A  6ADA               	clrf	fsr2h,c
  3671   000C3C  C019  FFDF         	movff	sprintf@c,indf2
  3672   000C40  2A0D               	incf	sprintf@sp^0,f,c
  3673                           
  3674                           ;doprnt.c: 559: continue;
  3675   000C42  D086               	goto	u1840
  3676   000C44                     l2442:
  3677                           
  3678                           ;doprnt.c: 560: };doprnt.c: 565: flag = 0;
  3679   000C44  0E00               	movlw	0
  3680   000C46  6E14               	movwf	sprintf@flag^0,c
  3681                           
  3682                           ;doprnt.c: 661: switch(c = *f++) {
  3683   000C48  D008               	goto	l2454
  3684   000C4A                     l2444:
  3685                           
  3686                           ;doprnt.c: 825: c = (char)(*(int *)__va_arg((*(int **)ap), (int)0));
  3687   000C4A  5016               	movf	sprintf@ap^0,w,c
  3688   000C4C  6ED9               	movwf	fsr2l,c
  3689   000C4E  6ADA               	clrf	fsr2h,c
  3690   000C50  50DF               	movf	indf2,w,c
  3691   000C52  6E19               	movwf	sprintf@c^0,c
  3692   000C54  0E02               	movlw	2
  3693   000C56  2616               	addwf	sprintf@ap^0,f,c
  3694   000C58  D7EE               	goto	u1790
  3695   000C5A                     l2454:
  3696   000C5A  2A0E               	incf	sprintf@f^0,f,c
  3697   000C5C  040E               	decf	sprintf@f^0,w,c
  3698   000C5E  6E13               	movwf	??_sprintf^0,c
  3699   000C60  C013  FFF6         	movff	??_sprintf,tblptrl
  3700   000C64                     	if	1	;There is more than 1 active tblptr byte
  3701   000C64  0E08               	movlw	high __smallconst
  3702   000C66  6EF7               	movwf	tblptrh,c
  3703   000C68                     	endif
  3704   000C68                     	if	0	;tblptru may be non-zero
  3705   000C68                     	endif
  3706   000C68                     	if	0	;tblptru may be non-zero
  3707   000C68                     	endif
  3708   000C68  0008               	tblrd		*
  3709   000C6A  CFF5 F019          	movff	tablat,sprintf@c
  3710   000C6E  5019               	movf	sprintf@c^0,w,c
  3711                           
  3712                           ; Switch size 1, requested type "simple"
  3713                           ; Number of cases is 4, Range of values is 0 to 105
  3714                           ; switch strategies available:
  3715                           ; Name         Instructions Cycles
  3716                           ; simple_byte           13     7 (average)
  3717                           ;	Chosen strategy is simple_byte
  3718   000C70  0A00               	xorlw	0	; case 0
  3719   000C72  B4D8               	btfsc	status,2,c
  3720   000C74  D07A               	goto	u1850
  3721   000C76  0A63               	xorlw	99	; case 99
  3722   000C78  B4D8               	btfsc	status,2,c
  3723   000C7A  D7E7               	goto	l2444
  3724   000C7C  0A07               	xorlw	7	; case 100
  3725   000C7E  B4D8               	btfsc	status,2,c
  3726   000C80  D003               	goto	l2456
  3727   000C82  0A0D               	xorlw	13	; case 105
  3728   000C84  A4D8               	btfss	status,2,c
  3729   000C86  D7D7               	goto	u1790
  3730   000C88                     l2456:
  3731                           
  3732                           ;doprnt.c: 1279: {;doprnt.c: 1285: val = (unsigned int)(*(int *)__va_arg((*(int **)ap), 
      +                          (int)0));
  3733   000C88  5016               	movf	sprintf@ap^0,w,c
  3734   000C8A  6ED9               	movwf	fsr2l,c
  3735   000C8C  6ADA               	clrf	fsr2h,c
  3736   000C8E  CFDE F017          	movff	postinc2,sprintf@val
  3737   000C92  CFDD F018          	movff	postdec2,sprintf@val+1
  3738   000C96  0E02               	movlw	2
  3739   000C98  2616               	addwf	sprintf@ap^0,f,c
  3740                           
  3741                           ;doprnt.c: 1287: if((int)val < 0) {
  3742   000C9A  AE18               	btfss	(sprintf@val+1)^0,7,c
  3743   000C9C  D006               	goto	l2466
  3744                           
  3745                           ;doprnt.c: 1288: flag |= 0x03;
  3746   000C9E  0E03               	movlw	3
  3747   000CA0  1214               	iorwf	sprintf@flag^0,f,c
  3748                           
  3749                           ;doprnt.c: 1289: val = -val;
  3750   000CA2  6C17               	negf	sprintf@val^0,c
  3751   000CA4  1E18               	comf	(sprintf@val+1)^0,f,c
  3752   000CA6  B0D8               	btfsc	status,0,c
  3753   000CA8  2A18               	incf	(sprintf@val+1)^0,f,c
  3754   000CAA                     l2466:
  3755                           
  3756                           ;doprnt.c: 1290: };doprnt.c: 1292: };doprnt.c: 1331: for(c = 1 ; c != sizeof dpowers/siz
      +                          eof dpowers[0] ; c++)
  3757   000CAA  0E01               	movlw	1
  3758   000CAC  6E19               	movwf	sprintf@c^0,c
  3759   000CAE                     l2472:
  3760                           
  3761                           ;doprnt.c: 1332: if(val < dpowers[c])
  3762   000CAE  5019               	movf	sprintf@c^0,w,c
  3763   000CB0  0D02               	mullw	2
  3764   000CB2  50F3               	movf	243,w,c
  3765   000CB4  0F01               	addlw	low _dpowers
  3766   000CB6  6E13               	movwf	??_sprintf^0,c
  3767   000CB8  C013  FFF6         	movff	??_sprintf,tblptrl
  3768   000CBC                     	if	1	;There is more than 1 active tblptr byte
  3769   000CBC  0E08               	movlw	high __smallconst
  3770   000CBE  6EF7               	movwf	tblptrh,c
  3771   000CC0                     	endif
  3772   000CC0                     	if	0	;tblptru may be non-zero
  3773   000CC0                     	endif
  3774   000CC0                     	if	0	;tblptru may be non-zero
  3775   000CC0                     	endif
  3776   000CC0  0009               	tblrd		*+
  3777   000CC2  50F5               	movf	tablat,w,c
  3778   000CC4  5C17               	subwf	sprintf@val^0,w,c
  3779   000CC6  0009               	tblrd		*+
  3780   000CC8  50F5               	movf	tablat,w,c
  3781   000CCA  5818               	subwfb	(sprintf@val+1)^0,w,c
  3782   000CCC  A0D8               	btfss	status,0,c
  3783   000CCE  D005               	goto	u1820
  3784   000CD0  2A19               	incf	sprintf@c^0,f,c
  3785   000CD2  0E05               	movlw	5
  3786   000CD4  1819               	xorwf	sprintf@c^0,w,c
  3787   000CD6  A4D8               	btfss	status,2,c
  3788   000CD8  D7EA               	goto	l2472
  3789   000CDA                     u1820:
  3790                           
  3791                           ;doprnt.c: 1448: {;doprnt.c: 1464: if(flag & 0x03)
  3792   000CDA  C014  F013         	movff	sprintf@flag,??_sprintf
  3793   000CDE  0E03               	movlw	3
  3794   000CE0  1613               	andwf	??_sprintf^0,f,c
  3795   000CE2  B4D8               	btfsc	status,2,c
  3796   000CE4  D006               	goto	l2486
  3797                           
  3798                           ;doprnt.c: 1465: ((*sp++ = ('-')));
  3799   000CE6  500D               	movf	sprintf@sp^0,w,c
  3800   000CE8  6ED9               	movwf	fsr2l,c
  3801   000CEA  6ADA               	clrf	fsr2h,c
  3802   000CEC  0E2D               	movlw	45
  3803   000CEE  6EDF               	movwf	indf2,c
  3804   000CF0  2A0D               	incf	sprintf@sp^0,f,c
  3805   000CF2                     l2486:
  3806                           
  3807                           ;doprnt.c: 1495: };doprnt.c: 1498: prec = c;
  3808   000CF2  C019  F015         	movff	sprintf@c,sprintf@prec
  3809                           
  3810                           ;doprnt.c: 1500: while(prec--) {
  3811   000CF6  D028               	goto	l2494
  3812   000CF8                     l2488:
  3813                           
  3814                           ;doprnt.c: 1504: {;doprnt.c: 1515: c = (val / dpowers[(unsigned char)prec]) % 10 + '0';
  3815   000CF8  5015               	movf	sprintf@prec^0,w,c
  3816   000CFA  0D02               	mullw	2
  3817   000CFC  50F3               	movf	243,w,c
  3818   000CFE  0F01               	addlw	low _dpowers
  3819   000D00  6E13               	movwf	??_sprintf^0,c
  3820   000D02  C013  FFF6         	movff	??_sprintf,tblptrl
  3821   000D06                     	if	1	;There is more than 1 active tblptr byte
  3822   000D06  0E08               	movlw	high __smallconst
  3823   000D08  6EF7               	movwf	tblptrh,c
  3824   000D0A                     	endif
  3825   000D0A                     	if	0	;tblptru may be non-zero
  3826   000D0A                     	endif
  3827   000D0A                     	if	0	;tblptru may be non-zero
  3828   000D0A                     	endif
  3829   000D0A  0009               	tblrd		*+
  3830   000D0C  CFF5 F003          	movff	tablat,___lwdiv@divisor
  3831   000D10  000A               	tblrd		*-
  3832   000D12  CFF5 F004          	movff	tablat,___lwdiv@divisor+1
  3833   000D16  C017  F001         	movff	sprintf@val,___lwdiv@dividend
  3834   000D1A  C018  F002         	movff	sprintf@val+1,___lwdiv@dividend+1
  3835   000D1E  ECF5  F00A         	call	___lwdiv	;wreg free
  3836   000D22  C001  F008         	movff	?___lwdiv,___lwmod@dividend
  3837   000D26  C002  F009         	movff	?___lwdiv+1,___lwmod@dividend+1
  3838   000D2A  0E00               	movlw	0
  3839   000D2C  6E0B               	movwf	(___lwmod@divisor+1)^0,c
  3840   000D2E  0E0A               	movlw	10
  3841   000D30  6E0A               	movwf	___lwmod@divisor^0,c
  3842   000D32  EC69  F00B         	call	___lwmod	;wreg free
  3843   000D36  5008               	movf	?___lwmod^0,w,c
  3844   000D38  0F30               	addlw	48
  3845   000D3A  6E19               	movwf	sprintf@c^0,c
  3846                           
  3847                           ;doprnt.c: 1549: };doprnt.c: 1550: ((*sp++ = (c)));
  3848   000D3C  500D               	movf	sprintf@sp^0,w,c
  3849   000D3E  6ED9               	movwf	fsr2l,c
  3850   000D40  6ADA               	clrf	fsr2h,c
  3851   000D42  C019  FFDF         	movff	sprintf@c,indf2
  3852   000D46  2A0D               	incf	sprintf@sp^0,f,c
  3853   000D48                     l2494:
  3854   000D48  0615               	decf	sprintf@prec^0,f,c
  3855   000D4A  2815               	incf	sprintf@prec^0,w,c
  3856   000D4C  A4D8               	btfss	status,2,c
  3857   000D4E  D7D4               	goto	l2488
  3858   000D50                     u1840:
  3859   000D50  2A0E               	incf	sprintf@f^0,f,c
  3860   000D52  040E               	decf	sprintf@f^0,w,c
  3861   000D54  6E13               	movwf	??_sprintf^0,c
  3862   000D56  C013  FFF6         	movff	??_sprintf,tblptrl
  3863   000D5A                     	if	1	;There is more than 1 active tblptr byte
  3864   000D5A  0E08               	movlw	high __smallconst
  3865   000D5C  6EF7               	movwf	tblptrh,c
  3866   000D5E                     	endif
  3867   000D5E                     	if	0	;tblptru may be non-zero
  3868   000D5E                     	endif
  3869   000D5E                     	if	0	;tblptru may be non-zero
  3870   000D5E                     	endif
  3871   000D5E  0008               	tblrd		*
  3872   000D60  CFF5 F019          	movff	tablat,sprintf@c
  3873   000D64  5019               	movf	sprintf@c^0,w,c
  3874   000D66  A4D8               	btfss	status,2,c
  3875   000D68  D762               	goto	l2436
  3876   000D6A                     u1850:
  3877                           
  3878                           ;doprnt.c: 1564: *sp = 0;
  3879   000D6A  500D               	movf	sprintf@sp^0,w,c
  3880   000D6C  6ED9               	movwf	fsr2l,c
  3881   000D6E  6ADA               	clrf	fsr2h,c
  3882   000D70  6ADF               	clrf	indf2,c
  3883   000D72  0012               	return		;funcret
  3884   000D74                     __end_of_sprintf:
  3885                           	callstack 0
  3886                           
  3887 ;; *************** function ___lwmod *****************
  3888 ;; Defined at:
  3889 ;;		line 7 in file "/opt/microchip/xc8/v2.41/pic/sources/c90/common/lwmod.c"
  3890 ;; Parameters:    Size  Location     Type
  3891 ;;  dividend        2    7[COMRAM] unsigned int 
  3892 ;;  divisor         2    9[COMRAM] unsigned int 
  3893 ;; Auto vars:     Size  Location     Type
  3894 ;;  counter         1   11[COMRAM] unsigned char 
  3895 ;; Return value:  Size  Location     Type
  3896 ;;                  2    7[COMRAM] unsigned int 
  3897 ;; Registers used:
  3898 ;;		wreg, status,2, status,0
  3899 ;; Tracked objects:
  3900 ;;		On entry : 0/0
  3901 ;;		On exit  : 0/0
  3902 ;;		Unchanged: 0/0
  3903 ;; Data sizes:     COMRAM   BANK0   BANK1   BANK2   BANK3   BANK4   BANK5   BANK6   BANK7
  3904 ;;      Params:         4       0       0       0       0       0       0       0       0
  3905 ;;      Locals:         1       0       0       0       0       0       0       0       0
  3906 ;;      Temps:          0       0       0       0       0       0       0       0       0
  3907 ;;      Totals:         5       0       0       0       0       0       0       0       0
  3908 ;;Total ram usage:        5 bytes
  3909 ;; Hardware stack levels used: 1
  3910 ;; Hardware stack levels required when called: 1
  3911 ;; This function calls:
  3912 ;;		Nothing
  3913 ;; This function is called by:
  3914 ;;		_sprintf
  3915 ;; This function uses a non-reentrant model
  3916 ;;
  3917                           
  3918                           	psect	text28
  3919   0016D2                     __ptext28:
  3920                           	callstack 0
  3921   0016D2                     ___lwmod:
  3922                           	callstack 27
  3923                           
  3924                           ;incstack = 0
  3925   0016D2  500A               	movf	___lwmod@divisor^0,w,c
  3926   0016D4  100B               	iorwf	(___lwmod@divisor+1)^0,w,c
  3927   0016D6  B4D8               	btfsc	status,2,c
  3928   0016D8  D018               	goto	l902
  3929   0016DA  0E01               	movlw	1
  3930   0016DC  6E0C               	movwf	___lwmod@counter^0,c
  3931   0016DE  D004               	goto	l2242
  3932   0016E0                     l2240:
  3933   0016E0  90D8               	bcf	status,0,c
  3934   0016E2  360A               	rlcf	___lwmod@divisor^0,f,c
  3935   0016E4  360B               	rlcf	(___lwmod@divisor+1)^0,f,c
  3936   0016E6  2A0C               	incf	___lwmod@counter^0,f,c
  3937   0016E8                     l2242:
  3938   0016E8  AE0B               	btfss	(___lwmod@divisor+1)^0,7,c
  3939   0016EA  D7FA               	goto	l2240
  3940   0016EC                     u1470:
  3941   0016EC  500A               	movf	___lwmod@divisor^0,w,c
  3942   0016EE  5C08               	subwf	___lwmod@dividend^0,w,c
  3943   0016F0  500B               	movf	(___lwmod@divisor+1)^0,w,c
  3944   0016F2  5809               	subwfb	(___lwmod@dividend+1)^0,w,c
  3945   0016F4  A0D8               	btfss	status,0,c
  3946   0016F6  D004               	goto	l2248
  3947   0016F8  500A               	movf	___lwmod@divisor^0,w,c
  3948   0016FA  5E08               	subwf	___lwmod@dividend^0,f,c
  3949   0016FC  500B               	movf	(___lwmod@divisor+1)^0,w,c
  3950   0016FE  5A09               	subwfb	(___lwmod@dividend+1)^0,f,c
  3951   001700                     l2248:
  3952   001700  90D8               	bcf	status,0,c
  3953   001702  320B               	rrcf	(___lwmod@divisor+1)^0,f,c
  3954   001704  320A               	rrcf	___lwmod@divisor^0,f,c
  3955   001706  2E0C               	decfsz	___lwmod@counter^0,f,c
  3956   001708  D7F1               	goto	u1470
  3957   00170A                     l902:
  3958   00170A  C008  F008         	movff	___lwmod@dividend,?___lwmod
  3959   00170E  C009  F009         	movff	___lwmod@dividend+1,?___lwmod+1
  3960   001712  0012               	return		;funcret
  3961   001714                     __end_of___lwmod:
  3962                           	callstack 0
  3963                           
  3964 ;; *************** function ___lwdiv *****************
  3965 ;; Defined at:
  3966 ;;		line 7 in file "/opt/microchip/xc8/v2.41/pic/sources/c90/common/lwdiv.c"
  3967 ;; Parameters:    Size  Location     Type
  3968 ;;  dividend        2    0[COMRAM] unsigned int 
  3969 ;;  divisor         2    2[COMRAM] unsigned int 
  3970 ;; Auto vars:     Size  Location     Type
  3971 ;;  quotient        2    4[COMRAM] unsigned int 
  3972 ;;  counter         1    6[COMRAM] unsigned char 
  3973 ;; Return value:  Size  Location     Type
  3974 ;;                  2    0[COMRAM] unsigned int 
  3975 ;; Registers used:
  3976 ;;		wreg, status,2, status,0
  3977 ;; Tracked objects:
  3978 ;;		On entry : 0/0
  3979 ;;		On exit  : 0/0
  3980 ;;		Unchanged: 0/0
  3981 ;; Data sizes:     COMRAM   BANK0   BANK1   BANK2   BANK3   BANK4   BANK5   BANK6   BANK7
  3982 ;;      Params:         4       0       0       0       0       0       0       0       0
  3983 ;;      Locals:         3       0       0       0       0       0       0       0       0
  3984 ;;      Temps:          0       0       0       0       0       0       0       0       0
  3985 ;;      Totals:         7       0       0       0       0       0       0       0       0
  3986 ;;Total ram usage:        7 bytes
  3987 ;; Hardware stack levels used: 1
  3988 ;; Hardware stack levels required when called: 1
  3989 ;; This function calls:
  3990 ;;		Nothing
  3991 ;; This function is called by:
  3992 ;;		_sprintf
  3993 ;; This function uses a non-reentrant model
  3994 ;;
  3995                           
  3996                           	psect	text29
  3997   0015EA                     __ptext29:
  3998                           	callstack 0
  3999   0015EA                     ___lwdiv:
  4000                           	callstack 27
  4001                           
  4002                           ;incstack = 0
  4003   0015EA  0E00               	movlw	0
  4004   0015EC  6E06               	movwf	(___lwdiv@quotient+1)^0,c
  4005   0015EE  0E00               	movlw	0
  4006   0015F0  6E05               	movwf	___lwdiv@quotient^0,c
  4007   0015F2  5003               	movf	___lwdiv@divisor^0,w,c
  4008   0015F4  1004               	iorwf	(___lwdiv@divisor+1)^0,w,c
  4009   0015F6  B4D8               	btfsc	status,2,c
  4010   0015F8  D01C               	goto	l892
  4011   0015FA  0E01               	movlw	1
  4012   0015FC  6E07               	movwf	___lwdiv@counter^0,c
  4013   0015FE  D004               	goto	l2222
  4014   001600                     l2220:
  4015   001600  90D8               	bcf	status,0,c
  4016   001602  3603               	rlcf	___lwdiv@divisor^0,f,c
  4017   001604  3604               	rlcf	(___lwdiv@divisor+1)^0,f,c
  4018   001606  2A07               	incf	___lwdiv@counter^0,f,c
  4019   001608                     l2222:
  4020   001608  AE04               	btfss	(___lwdiv@divisor+1)^0,7,c
  4021   00160A  D7FA               	goto	l2220
  4022   00160C                     u1440:
  4023   00160C  90D8               	bcf	status,0,c
  4024   00160E  3605               	rlcf	___lwdiv@quotient^0,f,c
  4025   001610  3606               	rlcf	(___lwdiv@quotient+1)^0,f,c
  4026   001612  5003               	movf	___lwdiv@divisor^0,w,c
  4027   001614  5C01               	subwf	___lwdiv@dividend^0,w,c
  4028   001616  5004               	movf	(___lwdiv@divisor+1)^0,w,c
  4029   001618  5802               	subwfb	(___lwdiv@dividend+1)^0,w,c
  4030   00161A  A0D8               	btfss	status,0,c
  4031   00161C  D005               	goto	l2232
  4032   00161E  5003               	movf	___lwdiv@divisor^0,w,c
  4033   001620  5E01               	subwf	___lwdiv@dividend^0,f,c
  4034   001622  5004               	movf	(___lwdiv@divisor+1)^0,w,c
  4035   001624  5A02               	subwfb	(___lwdiv@dividend+1)^0,f,c
  4036   001626  8005               	bsf	___lwdiv@quotient^0,0,c
  4037   001628                     l2232:
  4038   001628  90D8               	bcf	status,0,c
  4039   00162A  3204               	rrcf	(___lwdiv@divisor+1)^0,f,c
  4040   00162C  3203               	rrcf	___lwdiv@divisor^0,f,c
  4041   00162E  2E07               	decfsz	___lwdiv@counter^0,f,c
  4042   001630  D7ED               	goto	u1440
  4043   001632                     l892:
  4044   001632  C005  F001         	movff	___lwdiv@quotient,?___lwdiv
  4045   001636  C006  F002         	movff	___lwdiv@quotient+1,?___lwdiv+1
  4046   00163A  0012               	return		;funcret
  4047   00163C                     __end_of___lwdiv:
  4048                           	callstack 0
  4049                           
  4050 ;; *************** function ___lbtoft *****************
  4051 ;; Defined at:
  4052 ;;		line 27 in file "/opt/microchip/xc8/v2.41/pic/sources/c90/common/lbtoft.c"
  4053 ;; Parameters:    Size  Location     Type
  4054 ;;  c               1    wreg     unsigned char 
  4055 ;; Auto vars:     Size  Location     Type
  4056 ;;  c               1   11[COMRAM] unsigned char 
  4057 ;; Return value:  Size  Location     Type
  4058 ;;                  3    8[COMRAM] float 
  4059 ;; Registers used:
  4060 ;;		wreg, status,2, status,0, cstack
  4061 ;; Tracked objects:
  4062 ;;		On entry : 3F/0
  4063 ;;		On exit  : 0/0
  4064 ;;		Unchanged: 0/0
  4065 ;; Data sizes:     COMRAM   BANK0   BANK1   BANK2   BANK3   BANK4   BANK5   BANK6   BANK7
  4066 ;;      Params:         3       0       0       0       0       0       0       0       0
  4067 ;;      Locals:         1       0       0       0       0       0       0       0       0
  4068 ;;      Temps:          0       0       0       0       0       0       0       0       0
  4069 ;;      Totals:         4       0       0       0       0       0       0       0       0
  4070 ;;Total ram usage:        4 bytes
  4071 ;; Hardware stack levels used: 1
  4072 ;; Hardware stack levels required when called: 2
  4073 ;; This function calls:
  4074 ;;		___ftpack
  4075 ;; This function is called by:
  4076 ;;		_choose_scale_temperature_and_fill_buffers
  4077 ;; This function uses a non-reentrant model
  4078 ;;
  4079                           
  4080                           	psect	text30
  4081   001822                     __ptext30:
  4082                           	callstack 0
  4083   001822                     ___lbtoft:
  4084                           	callstack 27
  4085                           
  4086                           ;incstack = 0
  4087                           ;___lbtoft@c stored from wreg
  4088   001822  6E0C               	movwf	___lbtoft@c^0,c
  4089   001824  500C               	movf	___lbtoft@c^0,w,c
  4090   001826  6E01               	movwf	___ftpack@arg^0,c
  4091   001828  6A02               	clrf	(___ftpack@arg+1)^0,c
  4092   00182A  6A03               	clrf	(___ftpack@arg+2)^0,c
  4093   00182C  0E8E               	movlw	142
  4094   00182E  6E04               	movwf	___ftpack@exp^0,c
  4095   001830  0E00               	movlw	0
  4096   001832  6E05               	movwf	___ftpack@sign^0,c
  4097   001834  EC83  F008         	call	___ftpack	;wreg free
  4098   001838  C001  F009         	movff	?___ftpack,?___lbtoft
  4099   00183C  C002  F00A         	movff	?___ftpack+1,?___lbtoft+1
  4100   001840  C003  F00B         	movff	?___ftpack+2,?___lbtoft+2
  4101   001844  0012               	return		;funcret
  4102   001846                     __end_of___lbtoft:
  4103                           	callstack 0
  4104                           
  4105 ;; *************** function ___fttol *****************
  4106 ;; Defined at:
  4107 ;;		line 44 in file "/opt/microchip/xc8/v2.41/pic/sources/c90/common/fttol.c"
  4108 ;; Parameters:    Size  Location     Type
  4109 ;;  f1              3   54[COMRAM] float 
  4110 ;; Auto vars:     Size  Location     Type
  4111 ;;  lval            4   64[COMRAM] unsigned long 
  4112 ;;  exp1            1   68[COMRAM] unsigned char 
  4113 ;;  sign1           1   63[COMRAM] unsigned char 
  4114 ;; Return value:  Size  Location     Type
  4115 ;;                  4   54[COMRAM] long 
  4116 ;; Registers used:
  4117 ;;		wreg, status,2, status,0
  4118 ;; Tracked objects:
  4119 ;;		On entry : 0/0
  4120 ;;		On exit  : 0/0
  4121 ;;		Unchanged: 0/0
  4122 ;; Data sizes:     COMRAM   BANK0   BANK1   BANK2   BANK3   BANK4   BANK5   BANK6   BANK7
  4123 ;;      Params:         4       0       0       0       0       0       0       0       0
  4124 ;;      Locals:         6       0       0       0       0       0       0       0       0
  4125 ;;      Temps:          5       0       0       0       0       0       0       0       0
  4126 ;;      Totals:        15       0       0       0       0       0       0       0       0
  4127 ;;Total ram usage:       15 bytes
  4128 ;; Hardware stack levels used: 1
  4129 ;; Hardware stack levels required when called: 1
  4130 ;; This function calls:
  4131 ;;		Nothing
  4132 ;; This function is called by:
  4133 ;;		_choose_scale_temperature_and_fill_buffers
  4134 ;; This function uses a non-reentrant model
  4135 ;;
  4136                           
  4137                           	psect	text31
  4138   001034                     __ptext31:
  4139                           	callstack 0
  4140   001034                     ___fttol:
  4141                           	callstack 28
  4142                           
  4143                           ;incstack = 0
  4144   001034  C039  F03B         	movff	___fttol@f1+2,??___fttol
  4145   001038  6A3C               	clrf	(??___fttol+1)^0,c
  4146   00103A  6A3D               	clrf	(??___fttol+2)^0,c
  4147   00103C  3438               	rlcf	(___fttol@f1+1)^0,w,c
  4148   00103E  363B               	rlcf	??___fttol^0,f,c
  4149   001040  E301               	bnc	u2191
  4150   001042  803C               	bsf	(??___fttol+1)^0,0,c
  4151   001044                     u2191:
  4152   001044  503B               	movf	??___fttol^0,w,c
  4153   001046  6E45               	movwf	___fttol@exp1^0,c
  4154   001048  5045               	movf	___fttol@exp1^0,w,c
  4155   00104A  A4D8               	btfss	status,2,c
  4156   00104C  D009               	goto	l2678
  4157   00104E                     u2200:
  4158   00104E  0E00               	movlw	0
  4159   001050  6E37               	movwf	?___fttol^0,c
  4160   001052  0E00               	movlw	0
  4161   001054  6E38               	movwf	(?___fttol+1)^0,c
  4162   001056  0E00               	movlw	0
  4163   001058  6E39               	movwf	(?___fttol+2)^0,c
  4164   00105A  0E00               	movlw	0
  4165   00105C  6E3A               	movwf	(?___fttol+3)^0,c
  4166   00105E  0012               	return	
  4167   001060                     l2678:
  4168   001060  0E17               	movlw	23
  4169   001062  6E3B               	movwf	??___fttol^0,c
  4170   001064  C037  F03C         	movff	___fttol@f1,??___fttol+1
  4171   001068  C038  F03D         	movff	___fttol@f1+1,??___fttol+2
  4172   00106C  C039  F03E         	movff	___fttol@f1+2,??___fttol+3
  4173   001070  283B               	incf	??___fttol^0,w,c
  4174   001072  6E3F               	movwf	(??___fttol+4)^0,c
  4175   001074  D004               	goto	u2210
  4176   001076                     u2215:
  4177   001076  90D8               	bcf	status,0,c
  4178   001078  323E               	rrcf	(??___fttol+3)^0,f,c
  4179   00107A  323D               	rrcf	(??___fttol+2)^0,f,c
  4180   00107C  323C               	rrcf	(??___fttol+1)^0,f,c
  4181   00107E                     u2210:
  4182   00107E  2E3F               	decfsz	(??___fttol+4)^0,f,c
  4183   001080  D7FA               	goto	u2215
  4184   001082  503C               	movf	(??___fttol+1)^0,w,c
  4185   001084  6E40               	movwf	___fttol@sign1^0,c
  4186   001086  8E38               	bsf	(___fttol@f1+1)^0,7,c
  4187   001088  0EFF               	movlw	255
  4188   00108A  1637               	andwf	___fttol@f1^0,f,c
  4189   00108C  0EFF               	movlw	255
  4190   00108E  1638               	andwf	(___fttol@f1+1)^0,f,c
  4191   001090  0E00               	movlw	0
  4192   001092  1639               	andwf	(___fttol@f1+2)^0,f,c
  4193   001094  5037               	movf	___fttol@f1^0,w,c
  4194   001096  6E41               	movwf	___fttol@lval^0,c
  4195   001098  5038               	movf	(___fttol@f1+1)^0,w,c
  4196   00109A  6E42               	movwf	(___fttol@lval+1)^0,c
  4197   00109C  5039               	movf	(___fttol@f1+2)^0,w,c
  4198   00109E  6E43               	movwf	(___fttol@lval+2)^0,c
  4199   0010A0  6A44               	clrf	(___fttol@lval+3)^0,c
  4200   0010A2  0E8E               	movlw	142
  4201   0010A4  5E45               	subwf	___fttol@exp1^0,f,c
  4202   0010A6  AE45               	btfss	___fttol@exp1^0,7,c
  4203   0010A8  D00D               	goto	l2700
  4204   0010AA  5045               	movf	___fttol@exp1^0,w,c
  4205   0010AC  0A80               	xorlw	128
  4206   0010AE  0F8F               	addlw	143
  4207   0010B0  A0D8               	btfss	status,0,c
  4208   0010B2  D7CD               	goto	u2200
  4209   0010B4                     l2696:
  4210   0010B4  90D8               	bcf	status,0,c
  4211   0010B6  3244               	rrcf	(___fttol@lval+3)^0,f,c
  4212   0010B8  3243               	rrcf	(___fttol@lval+2)^0,f,c
  4213   0010BA  3242               	rrcf	(___fttol@lval+1)^0,f,c
  4214   0010BC  3241               	rrcf	___fttol@lval^0,f,c
  4215   0010BE  3E45               	incfsz	___fttol@exp1^0,f,c
  4216   0010C0  D7F9               	goto	l2696
  4217   0010C2  D00D               	goto	u2250
  4218   0010C4                     l2700:
  4219   0010C4  0E17               	movlw	23
  4220   0010C6  6445               	cpfsgt	___fttol@exp1^0,c
  4221   0010C8  D007               	goto	l2708
  4222   0010CA  D7C1               	goto	u2200
  4223   0010CC                     l2706:
  4224   0010CC  90D8               	bcf	status,0,c
  4225   0010CE  3641               	rlcf	___fttol@lval^0,f,c
  4226   0010D0  3642               	rlcf	(___fttol@lval+1)^0,f,c
  4227   0010D2  3643               	rlcf	(___fttol@lval+2)^0,f,c
  4228   0010D4  3644               	rlcf	(___fttol@lval+3)^0,f,c
  4229   0010D6  0645               	decf	___fttol@exp1^0,f,c
  4230   0010D8                     l2708:
  4231   0010D8  5045               	movf	___fttol@exp1^0,w,c
  4232   0010DA  A4D8               	btfss	status,2,c
  4233   0010DC  D7F7               	goto	l2706
  4234   0010DE                     u2250:
  4235   0010DE  5040               	movf	___fttol@sign1^0,w,c
  4236   0010E0  B4D8               	btfsc	status,2,c
  4237   0010E2  D008               	goto	l2714
  4238   0010E4  1E44               	comf	(___fttol@lval+3)^0,f,c
  4239   0010E6  1E43               	comf	(___fttol@lval+2)^0,f,c
  4240   0010E8  1E42               	comf	(___fttol@lval+1)^0,f,c
  4241   0010EA  6C41               	negf	___fttol@lval^0,c
  4242   0010EC  0E00               	movlw	0
  4243   0010EE  2242               	addwfc	(___fttol@lval+1)^0,f,c
  4244   0010F0  2243               	addwfc	(___fttol@lval+2)^0,f,c
  4245   0010F2  2244               	addwfc	(___fttol@lval+3)^0,f,c
  4246   0010F4                     l2714:
  4247   0010F4  C041  F037         	movff	___fttol@lval,?___fttol
  4248   0010F8  C042  F038         	movff	___fttol@lval+1,?___fttol+1
  4249   0010FC  C043  F039         	movff	___fttol@lval+2,?___fttol+2
  4250   001100  C044  F03A         	movff	___fttol@lval+3,?___fttol+3
  4251   001104  0012               	return		;funcret
  4252   001106                     __end_of___fttol:
  4253                           	callstack 0
  4254                           
  4255 ;; *************** function ___ftmul *****************
  4256 ;; Defined at:
  4257 ;;		line 62 in file "/opt/microchip/xc8/v2.41/pic/sources/c90/common/ftmul.c"
  4258 ;; Parameters:    Size  Location     Type
  4259 ;;  f1              3   12[COMRAM] float 
  4260 ;;  f2              3   15[COMRAM] float 
  4261 ;; Auto vars:     Size  Location     Type
  4262 ;;  f3_as_produc    3   22[COMRAM] unsigned um
  4263 ;;  sign            1   26[COMRAM] unsigned char 
  4264 ;;  cntr            1   25[COMRAM] unsigned char 
  4265 ;;  exp             1   21[COMRAM] unsigned char 
  4266 ;; Return value:  Size  Location     Type
  4267 ;;                  3   12[COMRAM] float 
  4268 ;; Registers used:
  4269 ;;		wreg, status,2, status,0, cstack
  4270 ;; Tracked objects:
  4271 ;;		On entry : 0/0
  4272 ;;		On exit  : 0/0
  4273 ;;		Unchanged: 0/0
  4274 ;; Data sizes:     COMRAM   BANK0   BANK1   BANK2   BANK3   BANK4   BANK5   BANK6   BANK7
  4275 ;;      Params:         6       0       0       0       0       0       0       0       0
  4276 ;;      Locals:         6       0       0       0       0       0       0       0       0
  4277 ;;      Temps:          3       0       0       0       0       0       0       0       0
  4278 ;;      Totals:        15       0       0       0       0       0       0       0       0
  4279 ;;Total ram usage:       15 bytes
  4280 ;; Hardware stack levels used: 1
  4281 ;; Hardware stack levels required when called: 2
  4282 ;; This function calls:
  4283 ;;		___ftpack
  4284 ;; This function is called by:
  4285 ;;		_choose_scale_temperature_and_fill_buffers
  4286 ;; This function uses a non-reentrant model
  4287 ;;
  4288                           
  4289                           	psect	text32
  4290   000D74                     __ptext32:
  4291                           	callstack 0
  4292   000D74                     ___ftmul:
  4293                           	callstack 27
  4294                           
  4295                           ;incstack = 0
  4296   000D74  C00F  F013         	movff	___ftmul@f1+2,??___ftmul
  4297   000D78  6A14               	clrf	(??___ftmul+1)^0,c
  4298   000D7A  6A15               	clrf	(??___ftmul+2)^0,c
  4299   000D7C  340E               	rlcf	(___ftmul@f1+1)^0,w,c
  4300   000D7E  3613               	rlcf	??___ftmul^0,f,c
  4301   000D80  E301               	bnc	u2131
  4302   000D82  8014               	bsf	(??___ftmul+1)^0,0,c
  4303   000D84                     u2131:
  4304   000D84  5013               	movf	??___ftmul^0,w,c
  4305   000D86  6E16               	movwf	___ftmul@exp^0,c
  4306   000D88  5016               	movf	___ftmul@exp^0,w,c
  4307   000D8A  A4D8               	btfss	status,2,c
  4308   000D8C  D007               	goto	l2630
  4309   000D8E  0E00               	movlw	0
  4310   000D90  6E0D               	movwf	?___ftmul^0,c
  4311   000D92  0E00               	movlw	0
  4312   000D94  6E0E               	movwf	(?___ftmul+1)^0,c
  4313   000D96  0E00               	movlw	0
  4314   000D98  6E0F               	movwf	(?___ftmul+2)^0,c
  4315   000D9A  0012               	return	
  4316   000D9C                     l2630:
  4317   000D9C  C012  F013         	movff	___ftmul@f2+2,??___ftmul
  4318   000DA0  6A14               	clrf	(??___ftmul+1)^0,c
  4319   000DA2  6A15               	clrf	(??___ftmul+2)^0,c
  4320   000DA4  3411               	rlcf	(___ftmul@f2+1)^0,w,c
  4321   000DA6  3613               	rlcf	??___ftmul^0,f,c
  4322   000DA8  E301               	bnc	u2151
  4323   000DAA  8014               	bsf	(??___ftmul+1)^0,0,c
  4324   000DAC                     u2151:
  4325   000DAC  5013               	movf	??___ftmul^0,w,c
  4326   000DAE  6E1B               	movwf	___ftmul@sign^0,c
  4327   000DB0  501B               	movf	___ftmul@sign^0,w,c
  4328   000DB2  A4D8               	btfss	status,2,c
  4329   000DB4  D007               	goto	l2636
  4330   000DB6  0E00               	movlw	0
  4331   000DB8  6E0D               	movwf	?___ftmul^0,c
  4332   000DBA  0E00               	movlw	0
  4333   000DBC  6E0E               	movwf	(?___ftmul+1)^0,c
  4334   000DBE  0E00               	movlw	0
  4335   000DC0  6E0F               	movwf	(?___ftmul+2)^0,c
  4336   000DC2  0012               	return	
  4337   000DC4                     l2636:
  4338   000DC4  501B               	movf	___ftmul@sign^0,w,c
  4339   000DC6  0F7B               	addlw	123
  4340   000DC8  2616               	addwf	___ftmul@exp^0,f,c
  4341   000DCA  C00F  F01B         	movff	___ftmul@f1+2,___ftmul@sign
  4342   000DCE  5012               	movf	(___ftmul@f2+2)^0,w,c
  4343   000DD0  1A1B               	xorwf	___ftmul@sign^0,f,c
  4344   000DD2  0E80               	movlw	128
  4345   000DD4  161B               	andwf	___ftmul@sign^0,f,c
  4346   000DD6  8E0E               	bsf	(___ftmul@f1+1)^0,7,c
  4347   000DD8  8E11               	bsf	(___ftmul@f2+1)^0,7,c
  4348   000DDA  0EFF               	movlw	255
  4349   000DDC  1610               	andwf	___ftmul@f2^0,f,c
  4350   000DDE  0EFF               	movlw	255
  4351   000DE0  1611               	andwf	(___ftmul@f2+1)^0,f,c
  4352   000DE2  0E00               	movlw	0
  4353   000DE4  1612               	andwf	(___ftmul@f2+2)^0,f,c
  4354   000DE6  0E00               	movlw	0
  4355   000DE8  6E17               	movwf	___ftmul@f3_as_product^0,c
  4356   000DEA  0E00               	movlw	0
  4357   000DEC  6E18               	movwf	(___ftmul@f3_as_product+1)^0,c
  4358   000DEE  0E00               	movlw	0
  4359   000DF0  6E19               	movwf	(___ftmul@f3_as_product+2)^0,c
  4360   000DF2  0E07               	movlw	7
  4361   000DF4  6E1A               	movwf	___ftmul@cntr^0,c
  4362   000DF6                     l2650:
  4363   000DF6  A00D               	btfss	___ftmul@f1^0,0,c
  4364   000DF8  D006               	goto	l2654
  4365   000DFA  5010               	movf	___ftmul@f2^0,w,c
  4366   000DFC  2617               	addwf	___ftmul@f3_as_product^0,f,c
  4367   000DFE  5011               	movf	(___ftmul@f2+1)^0,w,c
  4368   000E00  2218               	addwfc	(___ftmul@f3_as_product+1)^0,f,c
  4369   000E02  5012               	movf	(___ftmul@f2+2)^0,w,c
  4370   000E04  2219               	addwfc	(___ftmul@f3_as_product+2)^0,f,c
  4371   000E06                     l2654:
  4372   000E06  90D8               	bcf	status,0,c
  4373   000E08  320F               	rrcf	(___ftmul@f1+2)^0,f,c
  4374   000E0A  320E               	rrcf	(___ftmul@f1+1)^0,f,c
  4375   000E0C  320D               	rrcf	___ftmul@f1^0,f,c
  4376   000E0E  90D8               	bcf	status,0,c
  4377   000E10  3610               	rlcf	___ftmul@f2^0,f,c
  4378   000E12  3611               	rlcf	(___ftmul@f2+1)^0,f,c
  4379   000E14  3612               	rlcf	(___ftmul@f2+2)^0,f,c
  4380   000E16  2E1A               	decfsz	___ftmul@cntr^0,f,c
  4381   000E18  D7EE               	goto	l2650
  4382   000E1A  0E09               	movlw	9
  4383   000E1C  6E1A               	movwf	___ftmul@cntr^0,c
  4384   000E1E                     l2660:
  4385   000E1E  A00D               	btfss	___ftmul@f1^0,0,c
  4386   000E20  D006               	goto	l2664
  4387   000E22  5010               	movf	___ftmul@f2^0,w,c
  4388   000E24  2617               	addwf	___ftmul@f3_as_product^0,f,c
  4389   000E26  5011               	movf	(___ftmul@f2+1)^0,w,c
  4390   000E28  2218               	addwfc	(___ftmul@f3_as_product+1)^0,f,c
  4391   000E2A  5012               	movf	(___ftmul@f2+2)^0,w,c
  4392   000E2C  2219               	addwfc	(___ftmul@f3_as_product+2)^0,f,c
  4393   000E2E                     l2664:
  4394   000E2E  90D8               	bcf	status,0,c
  4395   000E30  320F               	rrcf	(___ftmul@f1+2)^0,f,c
  4396   000E32  320E               	rrcf	(___ftmul@f1+1)^0,f,c
  4397   000E34  320D               	rrcf	___ftmul@f1^0,f,c
  4398   000E36  90D8               	bcf	status,0,c
  4399   000E38  3219               	rrcf	(___ftmul@f3_as_product+2)^0,f,c
  4400   000E3A  3218               	rrcf	(___ftmul@f3_as_product+1)^0,f,c
  4401   000E3C  3217               	rrcf	___ftmul@f3_as_product^0,f,c
  4402   000E3E  2E1A               	decfsz	___ftmul@cntr^0,f,c
  4403   000E40  D7EE               	goto	l2660
  4404   000E42  C017  F001         	movff	___ftmul@f3_as_product,___ftpack@arg
  4405   000E46  C018  F002         	movff	___ftmul@f3_as_product+1,___ftpack@arg+1
  4406   000E4A  C019  F003         	movff	___ftmul@f3_as_product+2,___ftpack@arg+2
  4407   000E4E  C016  F004         	movff	___ftmul@exp,___ftpack@exp
  4408   000E52  C01B  F005         	movff	___ftmul@sign,___ftpack@sign
  4409   000E56  EC83  F008         	call	___ftpack	;wreg free
  4410   000E5A  C001  F00D         	movff	?___ftpack,?___ftmul
  4411   000E5E  C002  F00E         	movff	?___ftpack+1,?___ftmul+1
  4412   000E62  C003  F00F         	movff	?___ftpack+2,?___ftmul+2
  4413   000E66  0012               	return		;funcret
  4414   000E68                     __end_of___ftmul:
  4415                           	callstack 0
  4416                           
  4417 ;; *************** function ___ftdiv *****************
  4418 ;; Defined at:
  4419 ;;		line 54 in file "/opt/microchip/xc8/v2.41/pic/sources/c90/common/ftdiv.c"
  4420 ;; Parameters:    Size  Location     Type
  4421 ;;  f1              3   27[COMRAM] float 
  4422 ;;  f2              3   30[COMRAM] float 
  4423 ;; Auto vars:     Size  Location     Type
  4424 ;;  f3              3   37[COMRAM] float 
  4425 ;;  sign            1   41[COMRAM] unsigned char 
  4426 ;;  exp             1   40[COMRAM] unsigned char 
  4427 ;;  cntr            1   36[COMRAM] unsigned char 
  4428 ;; Return value:  Size  Location     Type
  4429 ;;                  3   27[COMRAM] float 
  4430 ;; Registers used:
  4431 ;;		wreg, status,2, status,0, cstack
  4432 ;; Tracked objects:
  4433 ;;		On entry : 0/0
  4434 ;;		On exit  : 0/0
  4435 ;;		Unchanged: 0/0
  4436 ;; Data sizes:     COMRAM   BANK0   BANK1   BANK2   BANK3   BANK4   BANK5   BANK6   BANK7
  4437 ;;      Params:         6       0       0       0       0       0       0       0       0
  4438 ;;      Locals:         6       0       0       0       0       0       0       0       0
  4439 ;;      Temps:          3       0       0       0       0       0       0       0       0
  4440 ;;      Totals:        15       0       0       0       0       0       0       0       0
  4441 ;;Total ram usage:       15 bytes
  4442 ;; Hardware stack levels used: 1
  4443 ;; Hardware stack levels required when called: 2
  4444 ;; This function calls:
  4445 ;;		___ftpack
  4446 ;; This function is called by:
  4447 ;;		_choose_scale_temperature_and_fill_buffers
  4448 ;; This function uses a non-reentrant model
  4449 ;;
  4450                           
  4451                           	psect	text33
  4452   000F4E                     __ptext33:
  4453                           	callstack 0
  4454   000F4E                     ___ftdiv:
  4455                           	callstack 27
  4456                           
  4457                           ;incstack = 0
  4458   000F4E  C01E  F022         	movff	___ftdiv@f1+2,??___ftdiv
  4459   000F52  6A23               	clrf	(??___ftdiv+1)^0,c
  4460   000F54  6A24               	clrf	(??___ftdiv+2)^0,c
  4461   000F56  341D               	rlcf	(___ftdiv@f1+1)^0,w,c
  4462   000F58  3622               	rlcf	??___ftdiv^0,f,c
  4463   000F5A  E301               	bnc	u2081
  4464   000F5C  8023               	bsf	(??___ftdiv+1)^0,0,c
  4465   000F5E                     u2081:
  4466   000F5E  5022               	movf	??___ftdiv^0,w,c
  4467   000F60  6E29               	movwf	___ftdiv@exp^0,c
  4468   000F62  5029               	movf	___ftdiv@exp^0,w,c
  4469   000F64  A4D8               	btfss	status,2,c
  4470   000F66  D007               	goto	l2584
  4471   000F68  0E00               	movlw	0
  4472   000F6A  6E1C               	movwf	?___ftdiv^0,c
  4473   000F6C  0E00               	movlw	0
  4474   000F6E  6E1D               	movwf	(?___ftdiv+1)^0,c
  4475   000F70  0E00               	movlw	0
  4476   000F72  6E1E               	movwf	(?___ftdiv+2)^0,c
  4477   000F74  0012               	return	
  4478   000F76                     l2584:
  4479   000F76  C021  F022         	movff	___ftdiv@f2+2,??___ftdiv
  4480   000F7A  6A23               	clrf	(??___ftdiv+1)^0,c
  4481   000F7C  6A24               	clrf	(??___ftdiv+2)^0,c
  4482   000F7E  3420               	rlcf	(___ftdiv@f2+1)^0,w,c
  4483   000F80  3622               	rlcf	??___ftdiv^0,f,c
  4484   000F82  E301               	bnc	u2101
  4485   000F84  8023               	bsf	(??___ftdiv+1)^0,0,c
  4486   000F86                     u2101:
  4487   000F86  5022               	movf	??___ftdiv^0,w,c
  4488   000F88  6E2A               	movwf	___ftdiv@sign^0,c
  4489   000F8A  502A               	movf	___ftdiv@sign^0,w,c
  4490   000F8C  A4D8               	btfss	status,2,c
  4491   000F8E  D007               	goto	l2590
  4492   000F90  0E00               	movlw	0
  4493   000F92  6E1C               	movwf	?___ftdiv^0,c
  4494   000F94  0E00               	movlw	0
  4495   000F96  6E1D               	movwf	(?___ftdiv+1)^0,c
  4496   000F98  0E00               	movlw	0
  4497   000F9A  6E1E               	movwf	(?___ftdiv+2)^0,c
  4498   000F9C  0012               	return	
  4499   000F9E                     l2590:
  4500   000F9E  0E00               	movlw	0
  4501   000FA0  6E26               	movwf	___ftdiv@f3^0,c
  4502   000FA2  0E00               	movlw	0
  4503   000FA4  6E27               	movwf	(___ftdiv@f3+1)^0,c
  4504   000FA6  0E00               	movlw	0
  4505   000FA8  6E28               	movwf	(___ftdiv@f3+2)^0,c
  4506   000FAA  502A               	movf	___ftdiv@sign^0,w,c
  4507   000FAC  0F89               	addlw	137
  4508   000FAE  5E29               	subwf	___ftdiv@exp^0,f,c
  4509   000FB0  C01E  F02A         	movff	___ftdiv@f1+2,___ftdiv@sign
  4510   000FB4  5021               	movf	(___ftdiv@f2+2)^0,w,c
  4511   000FB6  1A2A               	xorwf	___ftdiv@sign^0,f,c
  4512   000FB8  0E80               	movlw	128
  4513   000FBA  162A               	andwf	___ftdiv@sign^0,f,c
  4514   000FBC  8E1D               	bsf	(___ftdiv@f1+1)^0,7,c
  4515   000FBE  0EFF               	movlw	255
  4516   000FC0  161C               	andwf	___ftdiv@f1^0,f,c
  4517   000FC2  0EFF               	movlw	255
  4518   000FC4  161D               	andwf	(___ftdiv@f1+1)^0,f,c
  4519   000FC6  0E00               	movlw	0
  4520   000FC8  161E               	andwf	(___ftdiv@f1+2)^0,f,c
  4521   000FCA  8E20               	bsf	(___ftdiv@f2+1)^0,7,c
  4522   000FCC  0EFF               	movlw	255
  4523   000FCE  161F               	andwf	___ftdiv@f2^0,f,c
  4524   000FD0  0EFF               	movlw	255
  4525   000FD2  1620               	andwf	(___ftdiv@f2+1)^0,f,c
  4526   000FD4  0E00               	movlw	0
  4527   000FD6  1621               	andwf	(___ftdiv@f2+2)^0,f,c
  4528   000FD8  0E18               	movlw	24
  4529   000FDA  6E25               	movwf	___ftdiv@cntr^0,c
  4530   000FDC                     l2610:
  4531   000FDC  90D8               	bcf	status,0,c
  4532   000FDE  3626               	rlcf	___ftdiv@f3^0,f,c
  4533   000FE0  3627               	rlcf	(___ftdiv@f3+1)^0,f,c
  4534   000FE2  3628               	rlcf	(___ftdiv@f3+2)^0,f,c
  4535   000FE4  501F               	movf	___ftdiv@f2^0,w,c
  4536   000FE6  5C1C               	subwf	___ftdiv@f1^0,w,c
  4537   000FE8  5020               	movf	(___ftdiv@f2+1)^0,w,c
  4538   000FEA  581D               	subwfb	(___ftdiv@f1+1)^0,w,c
  4539   000FEC  5021               	movf	(___ftdiv@f2+2)^0,w,c
  4540   000FEE  581E               	subwfb	(___ftdiv@f1+2)^0,w,c
  4541   000FF0  A0D8               	btfss	status,0,c
  4542   000FF2  D007               	goto	l754
  4543   000FF4  501F               	movf	___ftdiv@f2^0,w,c
  4544   000FF6  5E1C               	subwf	___ftdiv@f1^0,f,c
  4545   000FF8  5020               	movf	(___ftdiv@f2+1)^0,w,c
  4546   000FFA  5A1D               	subwfb	(___ftdiv@f1+1)^0,f,c
  4547   000FFC  5021               	movf	(___ftdiv@f2+2)^0,w,c
  4548   000FFE  5A1E               	subwfb	(___ftdiv@f1+2)^0,f,c
  4549   001000  8026               	bsf	___ftdiv@f3^0,0,c
  4550   001002                     l754:
  4551   001002  90D8               	bcf	status,0,c
  4552   001004  361C               	rlcf	___ftdiv@f1^0,f,c
  4553   001006  361D               	rlcf	(___ftdiv@f1+1)^0,f,c
  4554   001008  361E               	rlcf	(___ftdiv@f1+2)^0,f,c
  4555   00100A  2E25               	decfsz	___ftdiv@cntr^0,f,c
  4556   00100C  D7E7               	goto	l2610
  4557   00100E  C026  F001         	movff	___ftdiv@f3,___ftpack@arg
  4558   001012  C027  F002         	movff	___ftdiv@f3+1,___ftpack@arg+1
  4559   001016  C028  F003         	movff	___ftdiv@f3+2,___ftpack@arg+2
  4560   00101A  C029  F004         	movff	___ftdiv@exp,___ftpack@exp
  4561   00101E  C02A  F005         	movff	___ftdiv@sign,___ftpack@sign
  4562   001022  EC83  F008         	call	___ftpack	;wreg free
  4563   001026  C001  F01C         	movff	?___ftpack,?___ftdiv
  4564   00102A  C002  F01D         	movff	?___ftpack+1,?___ftdiv+1
  4565   00102E  C003  F01E         	movff	?___ftpack+2,?___ftdiv+2
  4566   001032  0012               	return		;funcret
  4567   001034                     __end_of___ftdiv:
  4568                           	callstack 0
  4569                           
  4570 ;; *************** function ___ftadd *****************
  4571 ;; Defined at:
  4572 ;;		line 86 in file "/opt/microchip/xc8/v2.41/pic/sources/c90/common/ftadd.c"
  4573 ;; Parameters:    Size  Location     Type
  4574 ;;  f1              3   42[COMRAM] float 
  4575 ;;  f2              3   45[COMRAM] float 
  4576 ;; Auto vars:     Size  Location     Type
  4577 ;;  exp1            1   53[COMRAM] unsigned char 
  4578 ;;  exp2            1   52[COMRAM] unsigned char 
  4579 ;;  sign            1   51[COMRAM] unsigned char 
  4580 ;; Return value:  Size  Location     Type
  4581 ;;                  3   42[COMRAM] float 
  4582 ;; Registers used:
  4583 ;;		wreg, status,2, status,0, cstack
  4584 ;; Tracked objects:
  4585 ;;		On entry : 0/0
  4586 ;;		On exit  : 0/0
  4587 ;;		Unchanged: 0/0
  4588 ;; Data sizes:     COMRAM   BANK0   BANK1   BANK2   BANK3   BANK4   BANK5   BANK6   BANK7
  4589 ;;      Params:         6       0       0       0       0       0       0       0       0
  4590 ;;      Locals:         3       0       0       0       0       0       0       0       0
  4591 ;;      Temps:          3       0       0       0       0       0       0       0       0
  4592 ;;      Totals:        12       0       0       0       0       0       0       0       0
  4593 ;;Total ram usage:       12 bytes
  4594 ;; Hardware stack levels used: 1
  4595 ;; Hardware stack levels required when called: 2
  4596 ;; This function calls:
  4597 ;;		___ftpack
  4598 ;; This function is called by:
  4599 ;;		_choose_scale_temperature_and_fill_buffers
  4600 ;; This function uses a non-reentrant model
  4601 ;;
  4602                           
  4603                           	psect	text34
  4604   000A80                     __ptext34:
  4605                           	callstack 0
  4606   000A80                     ___ftadd:
  4607                           	callstack 27
  4608                           
  4609                           ;incstack = 0
  4610   000A80  C02D  F031         	movff	___ftadd@f1+2,??___ftadd
  4611   000A84  6A32               	clrf	(??___ftadd+1)^0,c
  4612   000A86  6A33               	clrf	(??___ftadd+2)^0,c
  4613   000A88  342C               	rlcf	(___ftadd@f1+1)^0,w,c
  4614   000A8A  3631               	rlcf	??___ftadd^0,f,c
  4615   000A8C  E301               	bnc	u1871
  4616   000A8E  8032               	bsf	(??___ftadd+1)^0,0,c
  4617   000A90                     u1871:
  4618   000A90  5031               	movf	??___ftadd^0,w,c
  4619   000A92  6E36               	movwf	___ftadd@exp1^0,c
  4620   000A94  C030  F031         	movff	___ftadd@f2+2,??___ftadd
  4621   000A98  6A32               	clrf	(??___ftadd+1)^0,c
  4622   000A9A  6A33               	clrf	(??___ftadd+2)^0,c
  4623   000A9C  342F               	rlcf	(___ftadd@f2+1)^0,w,c
  4624   000A9E  3631               	rlcf	??___ftadd^0,f,c
  4625   000AA0  E301               	bnc	u1881
  4626   000AA2  8032               	bsf	(??___ftadd+1)^0,0,c
  4627   000AA4                     u1881:
  4628   000AA4  5031               	movf	??___ftadd^0,w,c
  4629   000AA6  6E35               	movwf	___ftadd@exp2^0,c
  4630   000AA8  5036               	movf	___ftadd@exp1^0,w,c
  4631   000AAA  B4D8               	btfsc	status,2,c
  4632   000AAC  D00A               	goto	u1910
  4633   000AAE  5035               	movf	___ftadd@exp2^0,w,c
  4634   000AB0  5C36               	subwf	___ftadd@exp1^0,w,c
  4635   000AB2  B0D8               	btfsc	status,0,c
  4636   000AB4  D00D               	goto	l2516
  4637   000AB6  5036               	movf	___ftadd@exp1^0,w,c
  4638   000AB8  5C35               	subwf	___ftadd@exp2^0,w,c
  4639   000ABA  6E31               	movwf	??___ftadd^0,c
  4640   000ABC  0E18               	movlw	24
  4641   000ABE  6431               	cpfsgt	??___ftadd^0,c
  4642   000AC0  D007               	goto	l2516
  4643   000AC2                     u1910:
  4644   000AC2  C02E  F02B         	movff	___ftadd@f2,?___ftadd
  4645   000AC6  C02F  F02C         	movff	___ftadd@f2+1,?___ftadd+1
  4646   000ACA  C030  F02D         	movff	___ftadd@f2+2,?___ftadd+2
  4647   000ACE  0012               	return	
  4648   000AD0                     l2516:
  4649   000AD0  5035               	movf	___ftadd@exp2^0,w,c
  4650   000AD2  B4D8               	btfsc	status,2,c
  4651   000AD4  D00A               	goto	u1940
  4652   000AD6  5036               	movf	___ftadd@exp1^0,w,c
  4653   000AD8  5C35               	subwf	___ftadd@exp2^0,w,c
  4654   000ADA  B0D8               	btfsc	status,0,c
  4655   000ADC  D00D               	goto	l2522
  4656   000ADE  5035               	movf	___ftadd@exp2^0,w,c
  4657   000AE0  5C36               	subwf	___ftadd@exp1^0,w,c
  4658   000AE2  6E31               	movwf	??___ftadd^0,c
  4659   000AE4  0E18               	movlw	24
  4660   000AE6  6431               	cpfsgt	??___ftadd^0,c
  4661   000AE8  D007               	goto	l2522
  4662   000AEA                     u1940:
  4663   000AEA  C02B  F02B         	movff	___ftadd@f1,?___ftadd
  4664   000AEE  C02C  F02C         	movff	___ftadd@f1+1,?___ftadd+1
  4665   000AF2  C02D  F02D         	movff	___ftadd@f1+2,?___ftadd+2
  4666   000AF6  0012               	return	
  4667   000AF8                     l2522:
  4668   000AF8  0E06               	movlw	6
  4669   000AFA  6E34               	movwf	___ftadd@sign^0,c
  4670   000AFC  BE2D               	btfsc	(___ftadd@f1+2)^0,7,c
  4671   000AFE  8E34               	bsf	___ftadd@sign^0,7,c
  4672   000B00  BE30               	btfsc	(___ftadd@f2+2)^0,7,c
  4673   000B02  8C34               	bsf	___ftadd@sign^0,6,c
  4674   000B04  8E2C               	bsf	(___ftadd@f1+1)^0,7,c
  4675   000B06  0EFF               	movlw	255
  4676   000B08  162B               	andwf	___ftadd@f1^0,f,c
  4677   000B0A  0EFF               	movlw	255
  4678   000B0C  162C               	andwf	(___ftadd@f1+1)^0,f,c
  4679   000B0E  0E00               	movlw	0
  4680   000B10  162D               	andwf	(___ftadd@f1+2)^0,f,c
  4681   000B12  8E2F               	bsf	(___ftadd@f2+1)^0,7,c
  4682   000B14  0EFF               	movlw	255
  4683   000B16  162E               	andwf	___ftadd@f2^0,f,c
  4684   000B18  0EFF               	movlw	255
  4685   000B1A  162F               	andwf	(___ftadd@f2+1)^0,f,c
  4686   000B1C  0E00               	movlw	0
  4687   000B1E  1630               	andwf	(___ftadd@f2+2)^0,f,c
  4688   000B20  5035               	movf	___ftadd@exp2^0,w,c
  4689   000B22  5C36               	subwf	___ftadd@exp1^0,w,c
  4690   000B24  B0D8               	btfsc	status,0,c
  4691   000B26  D01B               	goto	l2548
  4692   000B28                     u1970:
  4693   000B28  90D8               	bcf	status,0,c
  4694   000B2A  362E               	rlcf	___ftadd@f2^0,f,c
  4695   000B2C  362F               	rlcf	(___ftadd@f2+1)^0,f,c
  4696   000B2E  3630               	rlcf	(___ftadd@f2+2)^0,f,c
  4697   000B30  0635               	decf	___ftadd@exp2^0,f,c
  4698   000B32  5036               	movf	___ftadd@exp1^0,w,c
  4699   000B34  1835               	xorwf	___ftadd@exp2^0,w,c
  4700   000B36  B4D8               	btfsc	status,2,c
  4701   000B38  D00D               	goto	l2546
  4702   000B3A  0634               	decf	___ftadd@sign^0,f,c
  4703   000B3C  C034  F031         	movff	___ftadd@sign,??___ftadd
  4704   000B40  0E07               	movlw	7
  4705   000B42  1631               	andwf	??___ftadd^0,f,c
  4706   000B44  B4D8               	btfsc	status,2,c
  4707   000B46  D006               	goto	l2546
  4708   000B48  D7EF               	goto	u1970
  4709   000B4A                     l2544:
  4710   000B4A  90D8               	bcf	status,0,c
  4711   000B4C  322D               	rrcf	(___ftadd@f1+2)^0,f,c
  4712   000B4E  322C               	rrcf	(___ftadd@f1+1)^0,f,c
  4713   000B50  322B               	rrcf	___ftadd@f1^0,f,c
  4714   000B52  2A36               	incf	___ftadd@exp1^0,f,c
  4715   000B54                     l2546:
  4716   000B54  5035               	movf	___ftadd@exp2^0,w,c
  4717   000B56  1836               	xorwf	___ftadd@exp1^0,w,c
  4718   000B58  B4D8               	btfsc	status,2,c
  4719   000B5A  D01F               	goto	u2040
  4720   000B5C  D7F6               	goto	l2544
  4721   000B5E                     l2548:
  4722   000B5E  5036               	movf	___ftadd@exp1^0,w,c
  4723   000B60  5C35               	subwf	___ftadd@exp2^0,w,c
  4724   000B62  B0D8               	btfsc	status,0,c
  4725   000B64  D01A               	goto	u2040
  4726   000B66                     u2010:
  4727   000B66  90D8               	bcf	status,0,c
  4728   000B68  362B               	rlcf	___ftadd@f1^0,f,c
  4729   000B6A  362C               	rlcf	(___ftadd@f1+1)^0,f,c
  4730   000B6C  362D               	rlcf	(___ftadd@f1+2)^0,f,c
  4731   000B6E  0636               	decf	___ftadd@exp1^0,f,c
  4732   000B70  5036               	movf	___ftadd@exp1^0,w,c
  4733   000B72  1835               	xorwf	___ftadd@exp2^0,w,c
  4734   000B74  B4D8               	btfsc	status,2,c
  4735   000B76  D00D               	goto	l2558
  4736   000B78  0634               	decf	___ftadd@sign^0,f,c
  4737   000B7A  C034  F031         	movff	___ftadd@sign,??___ftadd
  4738   000B7E  0E07               	movlw	7
  4739   000B80  1631               	andwf	??___ftadd^0,f,c
  4740   000B82  B4D8               	btfsc	status,2,c
  4741   000B84  D006               	goto	l2558
  4742   000B86  D7EF               	goto	u2010
  4743   000B88                     l2556:
  4744   000B88  90D8               	bcf	status,0,c
  4745   000B8A  3230               	rrcf	(___ftadd@f2+2)^0,f,c
  4746   000B8C  322F               	rrcf	(___ftadd@f2+1)^0,f,c
  4747   000B8E  322E               	rrcf	___ftadd@f2^0,f,c
  4748   000B90  2A35               	incf	___ftadd@exp2^0,f,c
  4749   000B92                     l2558:
  4750   000B92  5035               	movf	___ftadd@exp2^0,w,c
  4751   000B94  1836               	xorwf	___ftadd@exp1^0,w,c
  4752   000B96  A4D8               	btfss	status,2,c
  4753   000B98  D7F7               	goto	l2556
  4754   000B9A                     u2040:
  4755   000B9A  AE34               	btfss	___ftadd@sign^0,7,c
  4756   000B9C  D00C               	goto	l743
  4757   000B9E  0EFF               	movlw	255
  4758   000BA0  1A2B               	xorwf	___ftadd@f1^0,f,c
  4759   000BA2  0EFF               	movlw	255
  4760   000BA4  1A2C               	xorwf	(___ftadd@f1+1)^0,f,c
  4761   000BA6  0EFF               	movlw	255
  4762   000BA8  1A2D               	xorwf	(___ftadd@f1+2)^0,f,c
  4763   000BAA  0E01               	movlw	1
  4764   000BAC  262B               	addwf	___ftadd@f1^0,f,c
  4765   000BAE  0E00               	movlw	0
  4766   000BB0  222C               	addwfc	(___ftadd@f1+1)^0,f,c
  4767   000BB2  0E00               	movlw	0
  4768   000BB4  222D               	addwfc	(___ftadd@f1+2)^0,f,c
  4769   000BB6                     l743:
  4770   000BB6  AC34               	btfss	___ftadd@sign^0,6,c
  4771   000BB8  D00C               	goto	l2564
  4772   000BBA  0EFF               	movlw	255
  4773   000BBC  1A2E               	xorwf	___ftadd@f2^0,f,c
  4774   000BBE  0EFF               	movlw	255
  4775   000BC0  1A2F               	xorwf	(___ftadd@f2+1)^0,f,c
  4776   000BC2  0EFF               	movlw	255
  4777   000BC4  1A30               	xorwf	(___ftadd@f2+2)^0,f,c
  4778   000BC6  0E01               	movlw	1
  4779   000BC8  262E               	addwf	___ftadd@f2^0,f,c
  4780   000BCA  0E00               	movlw	0
  4781   000BCC  222F               	addwfc	(___ftadd@f2+1)^0,f,c
  4782   000BCE  0E00               	movlw	0
  4783   000BD0  2230               	addwfc	(___ftadd@f2+2)^0,f,c
  4784   000BD2                     l2564:
  4785   000BD2  0E00               	movlw	0
  4786   000BD4  6E34               	movwf	___ftadd@sign^0,c
  4787   000BD6  502B               	movf	___ftadd@f1^0,w,c
  4788   000BD8  262E               	addwf	___ftadd@f2^0,f,c
  4789   000BDA  502C               	movf	(___ftadd@f1+1)^0,w,c
  4790   000BDC  222F               	addwfc	(___ftadd@f2+1)^0,f,c
  4791   000BDE  502D               	movf	(___ftadd@f1+2)^0,w,c
  4792   000BE0  2230               	addwfc	(___ftadd@f2+2)^0,f,c
  4793   000BE2  AE30               	btfss	(___ftadd@f2+2)^0,7,c
  4794   000BE4  D00E               	goto	l2574
  4795   000BE6  0EFF               	movlw	255
  4796   000BE8  1A2E               	xorwf	___ftadd@f2^0,f,c
  4797   000BEA  0EFF               	movlw	255
  4798   000BEC  1A2F               	xorwf	(___ftadd@f2+1)^0,f,c
  4799   000BEE  0EFF               	movlw	255
  4800   000BF0  1A30               	xorwf	(___ftadd@f2+2)^0,f,c
  4801   000BF2  0E01               	movlw	1
  4802   000BF4  262E               	addwf	___ftadd@f2^0,f,c
  4803   000BF6  0E00               	movlw	0
  4804   000BF8  222F               	addwfc	(___ftadd@f2+1)^0,f,c
  4805   000BFA  0E00               	movlw	0
  4806   000BFC  2230               	addwfc	(___ftadd@f2+2)^0,f,c
  4807   000BFE  0E01               	movlw	1
  4808   000C00  6E34               	movwf	___ftadd@sign^0,c
  4809   000C02                     l2574:
  4810   000C02  C02E  F001         	movff	___ftadd@f2,___ftpack@arg
  4811   000C06  C02F  F002         	movff	___ftadd@f2+1,___ftpack@arg+1
  4812   000C0A  C030  F003         	movff	___ftadd@f2+2,___ftpack@arg+2
  4813   000C0E  C036  F004         	movff	___ftadd@exp1,___ftpack@exp
  4814   000C12  C034  F005         	movff	___ftadd@sign,___ftpack@sign
  4815   000C16  EC83  F008         	call	___ftpack	;wreg free
  4816   000C1A  C001  F02B         	movff	?___ftpack,?___ftadd
  4817   000C1E  C002  F02C         	movff	?___ftpack+1,?___ftadd+1
  4818   000C22  C003  F02D         	movff	?___ftpack+2,?___ftadd+2
  4819   000C26  0012               	return		;funcret
  4820   000C28                     __end_of___ftadd:
  4821                           	callstack 0
  4822                           
  4823 ;; *************** function ___ftpack *****************
  4824 ;; Defined at:
  4825 ;;		line 62 in file "/opt/microchip/xc8/v2.41/pic/sources/c90/common/float.c"
  4826 ;; Parameters:    Size  Location     Type
  4827 ;;  arg             3    0[COMRAM] unsigned um
  4828 ;;  exp             1    3[COMRAM] unsigned char 
  4829 ;;  sign            1    4[COMRAM] unsigned char 
  4830 ;; Auto vars:     Size  Location     Type
  4831 ;;		None
  4832 ;; Return value:  Size  Location     Type
  4833 ;;                  3    0[COMRAM] float 
  4834 ;; Registers used:
  4835 ;;		wreg, status,2, status,0
  4836 ;; Tracked objects:
  4837 ;;		On entry : 0/0
  4838 ;;		On exit  : 0/0
  4839 ;;		Unchanged: 0/0
  4840 ;; Data sizes:     COMRAM   BANK0   BANK1   BANK2   BANK3   BANK4   BANK5   BANK6   BANK7
  4841 ;;      Params:         5       0       0       0       0       0       0       0       0
  4842 ;;      Locals:         0       0       0       0       0       0       0       0       0
  4843 ;;      Temps:          3       0       0       0       0       0       0       0       0
  4844 ;;      Totals:         8       0       0       0       0       0       0       0       0
  4845 ;;Total ram usage:        8 bytes
  4846 ;; Hardware stack levels used: 1
  4847 ;; Hardware stack levels required when called: 1
  4848 ;; This function calls:
  4849 ;;		Nothing
  4850 ;; This function is called by:
  4851 ;;		___ftadd
  4852 ;;		___ftdiv
  4853 ;;		___ftmul
  4854 ;;		___lbtoft
  4855 ;; This function uses a non-reentrant model
  4856 ;;
  4857                           
  4858                           	psect	text35
  4859   001106                     __ptext35:
  4860                           	callstack 0
  4861   001106                     ___ftpack:
  4862                           	callstack 27
  4863                           
  4864                           ;incstack = 0
  4865   001106  5004               	movf	___ftpack@exp^0,w,c
  4866   001108  B4D8               	btfsc	status,2,c
  4867   00110A  D005               	goto	u1320
  4868   00110C  5001               	movf	___ftpack@arg^0,w,c
  4869   00110E  1002               	iorwf	(___ftpack@arg+1)^0,w,c
  4870   001110  1003               	iorwf	(___ftpack@arg+2)^0,w,c
  4871   001112  A4D8               	btfss	status,2,c
  4872   001114  D00C               	goto	l2146
  4873   001116                     u1320:
  4874   001116  0E00               	movlw	0
  4875   001118  6E01               	movwf	?___ftpack^0,c
  4876   00111A  0E00               	movlw	0
  4877   00111C  6E02               	movwf	(?___ftpack+1)^0,c
  4878   00111E  0E00               	movlw	0
  4879   001120  6E03               	movwf	(?___ftpack+2)^0,c
  4880   001122  0012               	return	
  4881   001124                     l2144:
  4882   001124  2A04               	incf	___ftpack@exp^0,f,c
  4883   001126  90D8               	bcf	status,0,c
  4884   001128  3203               	rrcf	(___ftpack@arg+2)^0,f,c
  4885   00112A  3202               	rrcf	(___ftpack@arg+1)^0,f,c
  4886   00112C  3201               	rrcf	___ftpack@arg^0,f,c
  4887   00112E                     l2146:
  4888   00112E  0E00               	movlw	0
  4889   001130  1401               	andwf	___ftpack@arg^0,w,c
  4890   001132  6E06               	movwf	??___ftpack^0,c
  4891   001134  0E00               	movlw	0
  4892   001136  1402               	andwf	(___ftpack@arg+1)^0,w,c
  4893   001138  6E07               	movwf	(??___ftpack+1)^0,c
  4894   00113A  0EFE               	movlw	254
  4895   00113C  1403               	andwf	(___ftpack@arg+2)^0,w,c
  4896   00113E  6E08               	movwf	(??___ftpack+2)^0,c
  4897   001140  5006               	movf	??___ftpack^0,w,c
  4898   001142  1007               	iorwf	(??___ftpack+1)^0,w,c
  4899   001144  1008               	iorwf	(??___ftpack+2)^0,w,c
  4900   001146  B4D8               	btfsc	status,2,c
  4901   001148  D00C               	goto	l2152
  4902   00114A  D7EC               	goto	l2144
  4903   00114C                     l2148:
  4904   00114C  2A04               	incf	___ftpack@exp^0,f,c
  4905   00114E  0E01               	movlw	1
  4906   001150  2601               	addwf	___ftpack@arg^0,f,c
  4907   001152  0E00               	movlw	0
  4908   001154  2202               	addwfc	(___ftpack@arg+1)^0,f,c
  4909   001156  0E00               	movlw	0
  4910   001158  2203               	addwfc	(___ftpack@arg+2)^0,f,c
  4911   00115A  90D8               	bcf	status,0,c
  4912   00115C  3203               	rrcf	(___ftpack@arg+2)^0,f,c
  4913   00115E  3202               	rrcf	(___ftpack@arg+1)^0,f,c
  4914   001160  3201               	rrcf	___ftpack@arg^0,f,c
  4915   001162                     l2152:
  4916   001162  0E00               	movlw	0
  4917   001164  1401               	andwf	___ftpack@arg^0,w,c
  4918   001166  6E06               	movwf	??___ftpack^0,c
  4919   001168  0E00               	movlw	0
  4920   00116A  1402               	andwf	(___ftpack@arg+1)^0,w,c
  4921   00116C  6E07               	movwf	(??___ftpack+1)^0,c
  4922   00116E  0EFF               	movlw	255
  4923   001170  1403               	andwf	(___ftpack@arg+2)^0,w,c
  4924   001172  6E08               	movwf	(??___ftpack+2)^0,c
  4925   001174  5006               	movf	??___ftpack^0,w,c
  4926   001176  1007               	iorwf	(??___ftpack+1)^0,w,c
  4927   001178  1008               	iorwf	(??___ftpack+2)^0,w,c
  4928   00117A  B4D8               	btfsc	status,2,c
  4929   00117C  D006               	goto	l2156
  4930   00117E  D7E6               	goto	l2148
  4931   001180                     l2154:
  4932   001180  0604               	decf	___ftpack@exp^0,f,c
  4933   001182  90D8               	bcf	status,0,c
  4934   001184  3601               	rlcf	___ftpack@arg^0,f,c
  4935   001186  3602               	rlcf	(___ftpack@arg+1)^0,f,c
  4936   001188  3603               	rlcf	(___ftpack@arg+2)^0,f,c
  4937   00118A                     l2156:
  4938   00118A  BE02               	btfsc	(___ftpack@arg+1)^0,7,c
  4939   00118C  D003               	goto	u1360
  4940   00118E  0E02               	movlw	2
  4941   001190  6004               	cpfslt	___ftpack@exp^0,c
  4942   001192  D7F6               	goto	l2154
  4943   001194                     u1360:
  4944   001194  A004               	btfss	___ftpack@exp^0,0,c
  4945   001196  9E02               	bcf	(___ftpack@arg+1)^0,7,c
  4946   001198  90D8               	bcf	status,0,c
  4947   00119A  3204               	rrcf	___ftpack@exp^0,f,c
  4948   00119C  5004               	movf	___ftpack@exp^0,w,c
  4949   00119E  1203               	iorwf	(___ftpack@arg+2)^0,f,c
  4950   0011A0  5005               	movf	___ftpack@sign^0,w,c
  4951   0011A2  A4D8               	btfss	status,2,c
  4952   0011A4  8E03               	bsf	(___ftpack@arg+2)^0,7,c
  4953   0011A6  C001  F001         	movff	___ftpack@arg,?___ftpack
  4954   0011AA  C002  F002         	movff	___ftpack@arg+1,?___ftpack+1
  4955   0011AE  C003  F003         	movff	___ftpack@arg+2,?___ftpack+2
  4956   0011B2  0012               	return		;funcret
  4957   0011B4                     __end_of___ftpack:
  4958                           	callstack 0
  4959                           
  4960 ;; *************** function _check_potentiometer_voltaje *****************
  4961 ;; Defined at:
  4962 ;;		line 277 in file "/home/esteban/Esteban/UN/semester12/Microcontroladores/MPLAB_X_IDE/lab05_ADC.X/LAB05.c"
  4963 ;; Parameters:    Size  Location     Type
  4964 ;;		None
  4965 ;; Auto vars:     Size  Location     Type
  4966 ;;		None
  4967 ;; Return value:  Size  Location     Type
  4968 ;;                  1    wreg      void 
  4969 ;; Registers used:
  4970 ;;		wreg, status,2, status,0
  4971 ;; Tracked objects:
  4972 ;;		On entry : 0/0
  4973 ;;		On exit  : 0/0
  4974 ;;		Unchanged: 0/0
  4975 ;; Data sizes:     COMRAM   BANK0   BANK1   BANK2   BANK3   BANK4   BANK5   BANK6   BANK7
  4976 ;;      Params:         0       0       0       0       0       0       0       0       0
  4977 ;;      Locals:         0       0       0       0       0       0       0       0       0
  4978 ;;      Temps:          0       0       0       0       0       0       0       0       0
  4979 ;;      Totals:         0       0       0       0       0       0       0       0       0
  4980 ;;Total ram usage:        0 bytes
  4981 ;; Hardware stack levels used: 1
  4982 ;; Hardware stack levels required when called: 1
  4983 ;; This function calls:
  4984 ;;		Nothing
  4985 ;; This function is called by:
  4986 ;;		_main
  4987 ;; This function uses a non-reentrant model
  4988 ;;
  4989                           
  4990                           	psect	text36
  4991   00188C                     __ptext36:
  4992                           	callstack 0
  4993   00188C                     _check_potentiometer_voltaje:
  4994                           	callstack 29
  4995                           
  4996                           ;LAB05.c: 278: ADON=1;
  4997                           
  4998                           ;incstack = 0
  4999   00188C  80C2               	bsf	4034,0,c	;volatile
  5000                           
  5001                           ;LAB05.c: 279: GO=1;
  5002   00188E  82C2               	bsf	4034,1,c	;volatile
  5003   001890                     l300:
  5004   001890  B2C2               	btfsc	4034,1,c	;volatile
  5005   001892  D7FE               	goto	l300
  5006                           
  5007                           ;LAB05.c: 281: if(ADRES > 511)
  5008   001894  0E00               	movlw	0
  5009   001896  5CC3               	subwf	195,w,c	;volatile
  5010   001898  0E02               	movlw	2
  5011   00189A  58C4               	subwfb	196,w,c	;volatile
  5012   00189C  A0D8               	btfss	status,0,c
  5013   00189E  D002               	goto	l303
  5014                           
  5015                           ;LAB05.c: 282: LATB0 = 1;
  5016   0018A0  808A               	bsf	3978,0,c	;volatile
  5017   0018A2  D001               	goto	l304
  5018   0018A4                     l303:
  5019                           
  5020                           ;LAB05.c: 283: else;LAB05.c: 284: LATB0 = 0;
  5021   0018A4  908A               	bcf	3978,0,c	;volatile
  5022   0018A6                     l304:
  5023                           
  5024                           ;LAB05.c: 285: ADON=0;
  5025   0018A6  90C2               	bcf	4034,0,c	;volatile
  5026                           
  5027                           ;LAB05.c: 286: return;
  5028   0018A8  0012               	return		;funcret
  5029   0018AA                     __end_of_check_potentiometer_voltaje:
  5030                           	callstack 0
  5031                           
  5032 ;; *************** function _ISR *****************
  5033 ;; Defined at:
  5034 ;;		line 450 in file "/home/esteban/Esteban/UN/semester12/Microcontroladores/MPLAB_X_IDE/lab05_ADC.X/LAB05.c"
  5035 ;; Parameters:    Size  Location     Type
  5036 ;;		None
  5037 ;; Auto vars:     Size  Location     Type
  5038 ;;		None
  5039 ;; Return value:  Size  Location     Type
  5040 ;;                  1    wreg      void 
  5041 ;; Registers used:
  5042 ;;		wreg, status,2
  5043 ;; Tracked objects:
  5044 ;;		On entry : 0/0
  5045 ;;		On exit  : 0/0
  5046 ;;		Unchanged: 0/0
  5047 ;; Data sizes:     COMRAM   BANK0   BANK1   BANK2   BANK3   BANK4   BANK5   BANK6   BANK7
  5048 ;;      Params:         0       0       0       0       0       0       0       0       0
  5049 ;;      Locals:         0       0       0       0       0       0       0       0       0
  5050 ;;      Temps:          0       0       0       0       0       0       0       0       0
  5051 ;;      Totals:         0       0       0       0       0       0       0       0       0
  5052 ;;Total ram usage:        0 bytes
  5053 ;; Hardware stack levels used: 1
  5054 ;; This function calls:
  5055 ;;		Nothing
  5056 ;; This function is called by:
  5057 ;;		Interrupt level 2
  5058 ;; This function uses a non-reentrant model
  5059 ;;
  5060                           
  5061                           	psect	intcode
  5062   000008                     __pintcode:
  5063                           	callstack 0
  5064   000008                     _ISR:
  5065                           	callstack 25
  5066                           
  5067                           ;incstack = 0
  5068   000008  824D               	bsf	btemp,1,c	;set compiler interrupt flag (level 2)
  5069   00000A  ED23  F00C         	call	int_func,f	;refresh shadow registers
  5070                           
  5071                           	psect	intcode_body
  5072   001846                     __pintcode_body:
  5073                           	callstack 25
  5074   001846                     int_func:
  5075                           	callstack 25
  5076   001846  0006               	pop		; remove dummy address from shadow register refresh
  5077                           
  5078                           ;LAB05.c: 451: if(TMR0IF==1){
  5079   001848  A4F2               	btfss	4082,2,c	;volatile
  5080   00184A  D00D               	goto	i2l372
  5081                           
  5082                           ;LAB05.c: 452: TMR0=3036;
  5083   00184C  0E0B               	movlw	11
  5084   00184E  6ED7               	movwf	215,c	;volatile
  5085   001850  0EDC               	movlw	220
  5086   001852  6ED6               	movwf	214,c	;volatile
  5087                           
  5088                           ;LAB05.c: 453: TMR0IF=0;
  5089   001854  94F2               	bcf	4082,2,c	;volatile
  5090                           
  5091                           ;LAB05.c: 454: LATC2=~LATC2;
  5092   001856  B48B               	btfsc	3979,2,c	;volatile
  5093   001858  D002               	goto	i2u255_40
  5094   00185A  848B               	bsf	3979,2,c	;volatile
  5095   00185C  D001               	goto	i2u256_45
  5096   00185E                     i2u255_40:
  5097   00185E  948B               	bcf	3979,2,c	;volatile
  5098   001860                     i2u256_45:
  5099                           
  5100                           ;LAB05.c: 455: Enable_sample=1;
  5101   001860  0E01               	movlw	1
  5102   001862  0100               	movlb	0	; () banked
  5103   001864  6F86               	movwf	_Enable_sample& (0+255),b
  5104   001866                     i2l372:
  5105   001866  924D               	bcf	btemp,1,c	;clear compiler interrupt flag (level 2)
  5106   001868  0011               	retfie		f
  5107   00186A                     __end_of_ISR:
  5108                           	callstack 0
  5109                           
  5110                           	psect	rparam
  5111   000000                     
  5112                           	psect	temp
  5113   00004D                     btemp:
  5114                           	callstack 0
  5115   00004D                     	ds	1
  5116   000000                     int$flags	set	btemp
  5117   000000                     wtemp8	set	btemp+1
  5118   000000                     ttemp5	set	btemp+1
  5119   000000                     ttemp6	set	btemp+4
  5120   000000                     ttemp7	set	btemp+8
  5121                           
  5122                           	psect	idloc
  5123                           
  5124                           ;Config register IDLOC0 @ 0x200000
  5125                           ;	unspecified, using default values
  5126   200000                     	org	2097152
  5127   200000  FF                 	db	255
  5128                           
  5129                           ;Config register IDLOC1 @ 0x200001
  5130                           ;	unspecified, using default values
  5131   200001                     	org	2097153
  5132   200001  FF                 	db	255
  5133                           
  5134                           ;Config register IDLOC2 @ 0x200002
  5135                           ;	unspecified, using default values
  5136   200002                     	org	2097154
  5137   200002  FF                 	db	255
  5138                           
  5139                           ;Config register IDLOC3 @ 0x200003
  5140                           ;	unspecified, using default values
  5141   200003                     	org	2097155
  5142   200003  FF                 	db	255
  5143                           
  5144                           ;Config register IDLOC4 @ 0x200004
  5145                           ;	unspecified, using default values
  5146   200004                     	org	2097156
  5147   200004  FF                 	db	255
  5148                           
  5149                           ;Config register IDLOC5 @ 0x200005
  5150                           ;	unspecified, using default values
  5151   200005                     	org	2097157
  5152   200005  FF                 	db	255
  5153                           
  5154                           ;Config register IDLOC6 @ 0x200006
  5155                           ;	unspecified, using default values
  5156   200006                     	org	2097158
  5157   200006  FF                 	db	255
  5158                           
  5159                           ;Config register IDLOC7 @ 0x200007
  5160                           ;	unspecified, using default values
  5161   200007                     	org	2097159
  5162   200007  FF                 	db	255
  5163                           
  5164                           	psect	config
  5165                           
  5166                           ;Config register CONFIG1L @ 0x300000
  5167                           ;	unspecified, using default values
  5168                           ;	PLL Prescaler Selection bits
  5169                           ;	PLLDIV = 0x0, unprogrammed default
  5170                           ;	System Clock Postscaler Selection bits
  5171                           ;	CPUDIV = 0x0, unprogrammed default
  5172                           ;	USB Clock Selection bit (used in Full-Speed USB mode only; UCFG:FSEN = 1)
  5173                           ;	USBDIV = 0x0, unprogrammed default
  5174   300000                     	org	3145728
  5175   300000  00                 	db	0
  5176                           
  5177                           ;Config register CONFIG1H @ 0x300001
  5178                           ;	Oscillator Selection bits
  5179                           ;	FOSC = INTOSC_EC, Internal oscillator, CLKO function on RA6, EC used by USB (INTCKO)
  5180                           ;	Fail-Safe Clock Monitor Enable bit
  5181                           ;	FCMEN = 0x0, unprogrammed default
  5182                           ;	Internal/External Oscillator Switchover bit
  5183                           ;	IESO = 0x0, unprogrammed default
  5184   300001                     	org	3145729
  5185   300001  09                 	db	9
  5186                           
  5187                           ;Config register CONFIG2L @ 0x300002
  5188                           ;	unspecified, using default values
  5189                           ;	Power-up Timer Enable bit
  5190                           ;	PWRT = 0x1, unprogrammed default
  5191                           ;	Brown-out Reset Enable bits
  5192                           ;	BOR = 0x3, unprogrammed default
  5193                           ;	Brown-out Reset Voltage bits
  5194                           ;	BORV = 0x3, unprogrammed default
  5195                           ;	USB Voltage Regulator Enable bit
  5196                           ;	VREGEN = 0x0, unprogrammed default
  5197   300002                     	org	3145730
  5198   300002  1F                 	db	31
  5199                           
  5200                           ;Config register CONFIG2H @ 0x300003
  5201                           ;	Watchdog Timer Enable bit
  5202                           ;	WDT = OFF, WDT disabled (control is placed on the SWDTEN bit)
  5203                           ;	Watchdog Timer Postscale Select bits
  5204                           ;	WDTPS = 512, 1:512
  5205   300003                     	org	3145731
  5206   300003  12                 	db	18
  5207                           
  5208                           ; Padding undefined space
  5209   300004                     	org	3145732
  5210   300004  FF                 	db	255
  5211                           
  5212                           ;Config register CONFIG3H @ 0x300005
  5213                           ;	unspecified, using default values
  5214                           ;	CCP2 MUX bit
  5215                           ;	CCP2MX = 0x1, unprogrammed default
  5216                           ;	PORTB A/D Enable bit
  5217                           ;	PBADEN = 0x1, unprogrammed default
  5218                           ;	Low-Power Timer 1 Oscillator Enable bit
  5219                           ;	LPT1OSC = 0x0, unprogrammed default
  5220                           ;	MCLR Pin Enable bit
  5221                           ;	MCLRE = 0x1, unprogrammed default
  5222   300005                     	org	3145733
  5223   300005  83                 	db	131
  5224                           
  5225                           ;Config register CONFIG4L @ 0x300006
  5226                           ;	unspecified, using default values
  5227                           ;	Stack Full/Underflow Reset Enable bit
  5228                           ;	STVREN = 0x1, unprogrammed default
  5229                           ;	Single-Supply ICSP Enable bit
  5230                           ;	LVP = 0x1, unprogrammed default
  5231                           ;	Dedicated In-Circuit Debug/Programming Port (ICPORT) Enable bit
  5232                           ;	ICPRT = 0x0, unprogrammed default
  5233                           ;	Extended Instruction Set Enable bit
  5234                           ;	XINST = 0x0, unprogrammed default
  5235                           ;	Background Debugger Enable bit
  5236                           ;	DEBUG = 0x1, unprogrammed default
  5237   300006                     	org	3145734
  5238   300006  85                 	db	133
  5239                           
  5240                           ; Padding undefined space
  5241   300007                     	org	3145735
  5242   300007  FF                 	db	255
  5243                           
  5244                           ;Config register CONFIG5L @ 0x300008
  5245                           ;	unspecified, using default values
  5246                           ;	Code Protection bit
  5247                           ;	CP0 = 0x1, unprogrammed default
  5248                           ;	Code Protection bit
  5249                           ;	CP1 = 0x1, unprogrammed default
  5250                           ;	Code Protection bit
  5251                           ;	CP2 = 0x1, unprogrammed default
  5252                           ;	Code Protection bit
  5253                           ;	CP3 = 0x1, unprogrammed default
  5254   300008                     	org	3145736
  5255   300008  0F                 	db	15
  5256                           
  5257                           ;Config register CONFIG5H @ 0x300009
  5258                           ;	unspecified, using default values
  5259                           ;	Boot Block Code Protection bit
  5260                           ;	CPB = 0x1, unprogrammed default
  5261                           ;	Data EEPROM Code Protection bit
  5262                           ;	CPD = 0x1, unprogrammed default
  5263   300009                     	org	3145737
  5264   300009  C0                 	db	192
  5265                           
  5266                           ;Config register CONFIG6L @ 0x30000A
  5267                           ;	unspecified, using default values
  5268                           ;	Write Protection bit
  5269                           ;	WRT0 = 0x1, unprogrammed default
  5270                           ;	Write Protection bit
  5271                           ;	WRT1 = 0x1, unprogrammed default
  5272                           ;	Write Protection bit
  5273                           ;	WRT2 = 0x1, unprogrammed default
  5274                           ;	Write Protection bit
  5275                           ;	WRT3 = 0x1, unprogrammed default
  5276   30000A                     	org	3145738
  5277   30000A  0F                 	db	15
  5278                           
  5279                           ;Config register CONFIG6H @ 0x30000B
  5280                           ;	unspecified, using default values
  5281                           ;	Configuration Register Write Protection bit
  5282                           ;	WRTC = 0x1, unprogrammed default
  5283                           ;	Boot Block Write Protection bit
  5284                           ;	WRTB = 0x1, unprogrammed default
  5285                           ;	Data EEPROM Write Protection bit
  5286                           ;	WRTD = 0x1, unprogrammed default
  5287   30000B                     	org	3145739
  5288   30000B  E0                 	db	224
  5289                           
  5290                           ;Config register CONFIG7L @ 0x30000C
  5291                           ;	unspecified, using default values
  5292                           ;	Table Read Protection bit
  5293                           ;	EBTR0 = 0x1, unprogrammed default
  5294                           ;	Table Read Protection bit
  5295                           ;	EBTR1 = 0x1, unprogrammed default
  5296                           ;	Table Read Protection bit
  5297                           ;	EBTR2 = 0x1, unprogrammed default
  5298                           ;	Table Read Protection bit
  5299                           ;	EBTR3 = 0x1, unprogrammed default
  5300   30000C                     	org	3145740
  5301   30000C  0F                 	db	15
  5302                           
  5303                           ;Config register CONFIG7H @ 0x30000D
  5304                           ;	unspecified, using default values
  5305                           ;	Boot Block Table Read Protection bit
  5306                           ;	EBTRB = 0x1, unprogrammed default
  5307   30000D                     	org	3145741
  5308   30000D  40                 	db	64
  5309                           tosu	equ	0xFFF
  5310                           tosh	equ	0xFFE
  5311                           tosl	equ	0xFFD
  5312                           stkptr	equ	0xFFC
  5313                           pclatu	equ	0xFFB
  5314                           pclath	equ	0xFFA
  5315                           pcl	equ	0xFF9
  5316                           tblptru	equ	0xFF8
  5317                           tblptrh	equ	0xFF7
  5318                           tblptrl	equ	0xFF6
  5319                           tablat	equ	0xFF5
  5320                           prodh	equ	0xFF4
  5321                           prodl	equ	0xFF3
  5322                           indf0	equ	0xFEF
  5323                           postinc0	equ	0xFEE
  5324                           postdec0	equ	0xFED
  5325                           preinc0	equ	0xFEC
  5326                           plusw0	equ	0xFEB
  5327                           fsr0h	equ	0xFEA
  5328                           fsr0l	equ	0xFE9
  5329                           wreg	equ	0xFE8
  5330                           indf1	equ	0xFE7
  5331                           postinc1	equ	0xFE6
  5332                           postdec1	equ	0xFE5
  5333                           preinc1	equ	0xFE4
  5334                           plusw1	equ	0xFE3
  5335                           fsr1h	equ	0xFE2
  5336                           fsr1l	equ	0xFE1
  5337                           bsr	equ	0xFE0
  5338                           indf2	equ	0xFDF
  5339                           postinc2	equ	0xFDE
  5340                           postdec2	equ	0xFDD
  5341                           preinc2	equ	0xFDC
  5342                           plusw2	equ	0xFDB
  5343                           fsr2h	equ	0xFDA
  5344                           fsr2l	equ	0xFD9
  5345                           status	equ	0xFD8

Data Sizes:
    Strings     107
    Constant    10
    Data        1
    BSS         5
    Persistent  0
    Stack       0

Auto Spaces:
    Space          Size  Autos    Used
    COMRAM           94     74      76
    BANK0           160     37      41
    BANK1           256      0       0
    BANK2           256      0       0
    BANK3           256      0       0
    BANK4           256      0       0
    BANK5           256      0       0
    BANK6           256      0       0
    BANK7           256      0       0

Pointer List with Targets:

    sprintf@f	PTR const unsigned char  size(1) Largest target is 9
		 -> STR_15(CODE[9]), STR_14(CODE[9]), STR_13(CODE[8]), STR_12(CODE[9]), 
		 -> STR_11(CODE[9]), STR_10(CODE[9]), STR_9(CODE[8]), STR_8(CODE[9]), 
		 -> STR_7(CODE[8]), 

    sprintf@sp	PTR unsigned char  size(1) Largest target is 17
		 -> send_temperature_RS232@buffer_RS232(COMRAM[12]), main@buffer_LCD_row_2(BANK0[17]), main@buffer_LCD_row_1(BANK0[17]), 

    sprintf@ap	PTR void [1] size(1) Largest target is 2
		 -> ?_sprintf(COMRAM[2]), 

    show_temperature_LCD@buffer_LCD_row_2	PTR unsigned char  size(1) Largest target is 17
		 -> main@buffer_LCD_row_2(BANK0[17]), 

    show_temperature_LCD@buffer_LCD_row_1	PTR unsigned char  size(1) Largest target is 17
		 -> main@buffer_LCD_row_1(BANK0[17]), 

    choose_scale_temperature_and_fill_buffers@buffer_LCD_row_2	PTR unsigned char  size(1) Largest target is 17
		 -> main@buffer_LCD_row_2(BANK0[17]), 

    choose_scale_temperature_and_fill_buffers@buffer_LCD_row_1	PTR unsigned char  size(1) Largest target is 17
		 -> main@buffer_LCD_row_1(BANK0[17]), 

    MensajeLCD_Var@a	PTR unsigned char  size(1) Largest target is 17
		 -> STR_6(CODE[3]), STR_5(CODE[5]), STR_4(CODE[17]), STR_3(CODE[13]), 
		 -> STR_2(CODE[8]), STR_1(CODE[13]), 


Critical Paths under _main in COMRAM

    _main->_choose_scale_temperature_and_fill_buffers
    _welcome_operations->_EscribeLCD_n8
    _MensajeLCD_Var->_DireccionaLCD
    _MensajeLCD_Var->_EscribeLCD_c
    _EscribeLCD_n8->___lbdiv
    ___lbdiv->___lbmod
    _show_temperature_LCD->_DireccionaLCD
    _show_temperature_LCD->_EscribeLCD_c
    _EscribeLCD_c->_EnviaDato
    _DireccionaLCD->_EnviaDato
    _send_temperature_RS232->_sprintf
    _save_temperature_c_EEPROM->_EEPROM_Write
    _measure_temperature_c_humidity_per->_DHT11_ReadData
    _InicializaLCD->_EnviaDato
    _BorraLCD->_EnviaDato
    _EnviaDato->_RetardoLCD
    _choose_scale_temperature_and_fill_buffers->___fttol
    _sprintf->___lwmod
    ___lwmod->___lwdiv
    ___lbtoft->___ftpack
    ___fttol->___ftadd
    ___ftmul->___lbtoft
    ___ftdiv->___ftmul
    ___ftadd->___ftdiv

Critical Paths under _ISR in COMRAM

    None.

Critical Paths under _main in BANK0

    None.

Critical Paths under _ISR in BANK0

    None.

Critical Paths under _main in BANK1

    None.

Critical Paths under _ISR in BANK1

    None.

Critical Paths under _main in BANK2

    None.

Critical Paths under _ISR in BANK2

    None.

Critical Paths under _main in BANK3

    None.

Critical Paths under _ISR in BANK3

    None.

Critical Paths under _main in BANK4

    None.

Critical Paths under _ISR in BANK4

    None.

Critical Paths under _main in BANK5

    None.

Critical Paths under _ISR in BANK5

    None.

Critical Paths under _main in BANK6

    None.

Critical Paths under _ISR in BANK6

    None.

Critical Paths under _main in BANK7

    None.

Critical Paths under _ISR in BANK7

    None.

Call Graph Tables:

 ---------------------------------------------------------------------------------
 (Depth) Function   	        Calls       Base Space   Used Autos Params    Refs
 ---------------------------------------------------------------------------------
 (0) _main                                                37    37      0   30603
                                              0 BANK0     37    37      0
        _check_potentiometer_voltaje
_choose_scale_temperature_and_fill_b
                 _init_configuration
 _measure_temperature_c_humidity_per
          _save_temperature_c_EEPROM
             _send_temperature_RS232
               _show_temperature_LCD
             _show_temperature_c_RGB
                 _welcome_operations
 ---------------------------------------------------------------------------------
 (1) _welcome_operations                                   2     2      0    2548
                                             13 COMRAM     2     2      0
                           _BorraLCD
                        _EEPROM_Read
                      _EscribeLCD_n8
                     _MensajeLCD_Var
 ---------------------------------------------------------------------------------
 (2) _MensajeLCD_Var                                       3     2      1    1009
                                              5 COMRAM     3     2      1
                           _BorraLCD
                      _DireccionaLCD
                       _EscribeLCD_c
 ---------------------------------------------------------------------------------
 (2) _EscribeLCD_n8                                        5     4      1    1407
                                              8 COMRAM     5     4      1
                        _EEPROM_Read (ARG)
                          _EnviaDato
                        _HabilitaLCD
                         _RetardoLCD
                            ___lbdiv
                            ___lbmod
 ---------------------------------------------------------------------------------
 (3) ___lbmod                                              4     3      1     539
                                              0 COMRAM     4     3      1
 ---------------------------------------------------------------------------------
 (3) ___lbdiv                                              4     3      1     390
                                              4 COMRAM     4     3      1
                            ___lbmod (ARG)
 ---------------------------------------------------------------------------------
 (2) _EEPROM_Read                                          1     1      0      22
                                              0 COMRAM     1     1      0
 ---------------------------------------------------------------------------------
 (1) _show_temperature_c_RGB                               0     0      0       0
 ---------------------------------------------------------------------------------
 (1) _show_temperature_LCD                                 6     1      5     936
                                              5 COMRAM     6     1      5
                      _DireccionaLCD
                       _EscribeLCD_c
 ---------------------------------------------------------------------------------
 (3) _EscribeLCD_c                                         1     1      0     132
                                              4 COMRAM     1     1      0
                          _EnviaDato
                        _HabilitaLCD
                         _RetardoLCD
 ---------------------------------------------------------------------------------
 (3) _DireccionaLCD                                        1     1      0     132
                                              4 COMRAM     1     1      0
                          _EnviaDato
                        _HabilitaLCD
                         _RetardoLCD
 ---------------------------------------------------------------------------------
 (1) _send_temperature_RS232                              15    15      0    5709
                                             25 COMRAM    15    15      0
                         _Transmitir
                            _sprintf
 ---------------------------------------------------------------------------------
 (2) _Transmitir                                           1     1      0      22
                                              0 COMRAM     1     1      0
 ---------------------------------------------------------------------------------
 (1) _save_temperature_c_EEPROM                            0     0      0     120
                       _EEPROM_Write
 ---------------------------------------------------------------------------------
 (2) _EEPROM_Write                                         2     1      1     120
                                              0 COMRAM     2     1      1
 ---------------------------------------------------------------------------------
 (1) _measure_temperature_c_humidity_per                   0     0      0     115
                _DHT11_CheckResponse
                     _DHT11_ReadData
                        _DHT11_Start
 ---------------------------------------------------------------------------------
 (2) _DHT11_Start                                          1     1      0       0
                                              0 COMRAM     1     1      0
 ---------------------------------------------------------------------------------
 (2) _DHT11_ReadData                                       3     3      0     115
                                              0 COMRAM     3     3      0
 ---------------------------------------------------------------------------------
 (2) _DHT11_CheckResponse                                  1     1      0       0
                                              0 COMRAM     1     1      0
 ---------------------------------------------------------------------------------
 (1) _init_configuration                                   2     2      0     286
                                              4 COMRAM     2     2      0
                       _ConfiguraLCD
                      _InicializaLCD
 ---------------------------------------------------------------------------------
 (2) _InicializaLCD                                        0     0      0     220
                           _BorraLCD
                          _EnviaDato
                        _HabilitaLCD
                         _RetardoLCD
 ---------------------------------------------------------------------------------
 (3) _BorraLCD                                             0     0      0     110
                          _EnviaDato
                        _HabilitaLCD
                         _RetardoLCD
 ---------------------------------------------------------------------------------
 (4) _EnviaDato                                            2     2      0      88
                                              2 COMRAM     2     2      0
                        _HabilitaLCD
                         _RetardoLCD
 ---------------------------------------------------------------------------------
 (4) _RetardoLCD                                           2     2      0      22
                                              0 COMRAM     2     2      0
 ---------------------------------------------------------------------------------
 (4) _HabilitaLCD                                          0     0      0       0
 ---------------------------------------------------------------------------------
 (2) _ConfiguraLCD                                         1     1      0      66
                                              0 COMRAM     1     1      0
 ---------------------------------------------------------------------------------
 (1) _choose_scale_temperature_and_fill_buffers            5     3      2   20705
                                             69 COMRAM     5     3      2
                            ___ftadd
                            ___ftdiv
                            ___ftmul
                            ___fttol
                           ___lbtoft
                            _sprintf
 ---------------------------------------------------------------------------------
 (2) _sprintf                                             22    16      6    5563
                                             12 COMRAM    13     7      6
                            ___lwdiv
                            ___lwmod
 ---------------------------------------------------------------------------------
 (3) ___lwmod                                              5     1      4    2075
                                              7 COMRAM     5     1      4
                            ___lwdiv (ARG)
 ---------------------------------------------------------------------------------
 (3) ___lwdiv                                              7     3      4    1574
                                              0 COMRAM     7     3      4
 ---------------------------------------------------------------------------------
 (2) ___lbtoft                                             4     1      3    2866
                                              8 COMRAM     4     1      3
                           ___ftpack
 ---------------------------------------------------------------------------------
 (2) ___fttol                                             15    11      4     480
                                             54 COMRAM    15    11      4
                            ___ftadd (ARG)
                            ___ftdiv (ARG)
                            ___ftmul (ARG)
                           ___lbtoft (ARG)
 ---------------------------------------------------------------------------------
 (2) ___ftmul                                             15     9      6    3602
                                             12 COMRAM    15     9      6
                           ___ftpack
                           ___lbtoft (ARG)
 ---------------------------------------------------------------------------------
 (2) ___ftdiv                                             15     9      6    3404
                                             27 COMRAM    15     9      6
                            ___ftmul (ARG)
                           ___ftpack
                           ___lbtoft (ARG)
 ---------------------------------------------------------------------------------
 (2) ___ftadd                                             12     6      6    4392
                                             42 COMRAM    12     6      6
                            ___ftdiv (ARG)
                            ___ftmul (ARG)
                           ___ftpack
                           ___lbtoft (ARG)
 ---------------------------------------------------------------------------------
 (3) ___ftpack                                             8     3      5    2844
                                              0 COMRAM     8     3      5
 ---------------------------------------------------------------------------------
 (1) _check_potentiometer_voltaje                          0     0      0       0
 ---------------------------------------------------------------------------------
 Estimated maximum stack depth 4
 ---------------------------------------------------------------------------------
 (Depth) Function   	        Calls       Base Space   Used Autos Params    Refs
 ---------------------------------------------------------------------------------
 (6) _ISR                                                  0     0      0       0
 ---------------------------------------------------------------------------------
 Estimated maximum stack depth 6
 ---------------------------------------------------------------------------------

 Call Graph Graphs:

 _main (ROOT)
   _check_potentiometer_voltaje
   _choose_scale_temperature_and_fill_buffers
     ___ftadd
       ___ftdiv (ARG)
         ___ftmul (ARG)
           ___ftpack
           ___lbtoft (ARG)
             ___ftpack
         ___ftpack (ARG)
         ___lbtoft (ARG)
       ___ftmul (ARG)
       ___ftpack (ARG)
       ___lbtoft (ARG)
     ___ftdiv
     ___ftmul
     ___fttol
       ___ftadd (ARG)
       ___ftdiv (ARG)
       ___ftmul (ARG)
       ___lbtoft (ARG)
     ___lbtoft
     _sprintf
       ___lwdiv
       ___lwmod
         ___lwdiv (ARG)
   _init_configuration
     _ConfiguraLCD
     _InicializaLCD
       _BorraLCD
         _EnviaDato
           _HabilitaLCD
           _RetardoLCD
         _HabilitaLCD
         _RetardoLCD
       _EnviaDato
       _HabilitaLCD
       _RetardoLCD
   _measure_temperature_c_humidity_per
     _DHT11_CheckResponse
     _DHT11_ReadData
     _DHT11_Start
   _save_temperature_c_EEPROM
     _EEPROM_Write
   _send_temperature_RS232
     _Transmitir
     _sprintf
   _show_temperature_LCD
     _DireccionaLCD
       _EnviaDato
       _HabilitaLCD
       _RetardoLCD
     _EscribeLCD_c
       _EnviaDato
       _HabilitaLCD
       _RetardoLCD
   _show_temperature_c_RGB
   _welcome_operations
     _BorraLCD
     _EEPROM_Read
     _EscribeLCD_n8
       _EEPROM_Read (ARG)
       _EnviaDato (ARG)
       _HabilitaLCD (ARG)
       _RetardoLCD (ARG)
       ___lbdiv (ARG)
         ___lbmod (ARG)
       ___lbmod (ARG)
     _MensajeLCD_Var
       _BorraLCD
       _DireccionaLCD
       _EscribeLCD_c

 _ISR (ROOT)

 Address spaces:
Name               Size   Autos  Total    Cost      Usage
BIGRAM             7FF      0       0      35        0.0%
EEDATA             100      0       0       0        0.0%
BITBANK7           100      0       0      18        0.0%
BANK7              100      0       0      19        0.0%
BITBANK6           100      0       0      16        0.0%
BANK6              100      0       0      17        0.0%
BITBANK5           100      0       0      14        0.0%
BANK5              100      0       0      15        0.0%
BITBANK4           100      0       0      12        0.0%
BANK4              100      0       0      13        0.0%
BITBANK3           100      0       0      10        0.0%
BANK3              100      0       0      11        0.0%
BITBANK2           100      0       0       8        0.0%
BANK2              100      0       0       9        0.0%
BITBANK1           100      0       0       6        0.0%
BANK1              100      0       0       7        0.0%
BITBANK0            A0      0       0       4        0.0%
BANK0               A0     25      29       5       25.6%
BITCOMRAM           5E      0       0       0        0.0%
COMRAM              5E     4A      4C       1       80.9%
BITBIGSFRlll        20      0       0      33        0.0%
BITBIGSFRhhhhl      1A      0       0      21        0.0%
BITBIGSFRhllhll      F      0       0      29        0.0%
BITBIGSFRhhhhh       D      0       0      20        0.0%
BITBIGSFRhlhhh       B      0       0      24        0.0%
BITBIGSFRhlhlh       8      0       0      26        0.0%
BITBIGSFRlh          7      0       0      31        0.0%
BITBIGSFRhlhhl       7      0       0      25        0.0%
BITBIGSFRhllll       5      0       0      30        0.0%
BITBIGSFRhllhh       1      0       0      28        0.0%
BITBIGSFRllh         1      0       0      32        0.0%
BITBIGSFRhlhll       1      0       0      27        0.0%
BITBIGSFRhhhl        1      0       0      22        0.0%
BITBIGSFRhhl         1      0       0      23        0.0%
BIGSFR               0      0       0     200        0.0%
BITSFR               0      0       0     200        0.0%
SFR                  0      0       0     200        0.0%
STACK                0      0       0       2        0.0%
NULL                 0      0       0       0        0.0%
ABS                  0      0      75      34        0.0%
DATA                 0      0      75       3        0.0%
CODE                 0      0       0       0        0.0%


Microchip Technology PIC18 Macro Assembler V2.41 build 20230208172133 
Symbol Table                                                                                   Sun Jun  4 16:43:17 2023

                                        Transmitir@BufferT 0001  
                                 ??_show_temperature_c_RGB 0001  
                                                       _GO 7E11  
                                                       _RD 7D30  
                                                       _TO 7E83  
                                                       _WR 7D31  
                                               EnviaDato@a 0004  
               __end_of_measure_temperature_c_humidity_per 1822  
                     ??_measure_temperature_c_humidity_per 0004  
                      ?_measure_temperature_c_humidity_per 0001  
                       _measure_temperature_c_humidity_per 17FC  
                                             ___ftadd@exp1 0036  
                                             ___ftadd@exp2 0035  
                                              main@Temp_n1 0082  
                                             ___ftadd@sign 0034  
                                                      l300 1890  
                                            _InicializaLCD 11B4  
                                                      l303 18A4  
                                                      l304 18A6  
                                                      l330 093A  
                                                      l323 14C0  
                                                      l332 09CE  
                                                      l328 08C2  
                                                      l274 159C  
                                                      l279 15CE  
                                                      l375 17F2  
                                                      l902 170A  
                                                      l743 0BB6  
                                                      l754 1002  
                                                      l892 1632  
                                                      _GIE 7F97  
                                                      _RA2 7C02  
                                                      _RA3 7C03  
                                                      _RC1 7C11  
                                                      _ISR 0008  
                                                      _Che 004B  
                                                      _Hum 0087  
                                                      wreg 0FE8  
                                                     ?_ISR 0001  
                                             ___ftdiv@cntr 0025  
                                             ___ftdiv@sign 002A  
                                                     l2200 17B6  
                                                     l2220 1600  
                                                     l2108 16C4  
                                                     l2222 1608  
                                                     l2302 123A  
                                                     l2152 1162  
                                                     l2144 1124  
                                                     l2232 1628  
                                                     l2240 16E0  
                                                     l2208 17CE  
                                                     l2312 0E6E  
                                                     l2154 1180  
                                                     l2146 112E  
                                                     l2242 16E8  
                                                     l2090 1564  
                                                     l2156 118A  
                                                     l2148 114C  
                                                     l2092 156E  
                                                     l2086 1532  
                                                     l2262 11C6  
                                                     l2406 15C8  
                                                     l2502 1922  
                                                     l2190 1742  
                                                     l2182 172C  
                                                     l2318 0E8E  
                                                     l2248 1700  
                                                     l2088 1544  
                                                     l2096 1578  
                                                     l2272 11E4  
                                                     l2328 0ED4  
                                                     l2344 0F38  
                                                     l2360 1332  
                                                     l2522 0AF8  
                                                     l2610 0FDC  
                                                     l2442 0C44  
                                                     l2282 1202  
                                                     l2178 1726  
                                                     l2194 174A  
                                                     l2354 1306  
                                                     l2516 0AD0  
                                                     l2700 10C4  
                                                     l2444 0C4A  
                                                     l2436 0C2E  
                                                     l2364 1348  
                                                     l2348 12E6  
                                                     l2630 0D9C  
                                                     l2454 0C5A  
                                                     l2366 134A  
                                                     l2544 0B4A  
                                                     l2472 0CAE  
                                                     l2456 0C88  
                                                     l2546 0B54  
                                                     l2650 0DF6  
                                                     l2714 10F4  
                                                     l2706 10CC  
                                                     l2466 0CAA  
                                                     l2564 0BD2  
                                                     l2556 0B88  
                                                     l2548 0B5E  
                                                     l2660 0E1E  
                                                     l2636 0DC4  
                                                     l2708 10D8  
                                                     l2900 14A4  
                                                     l2574 0C02  
                                                     l2558 0B92  
                                                     l2590 0F9E  
                                                     l2654 0E06  
                                                     l2494 0D48  
                                                     l2486 0CF2  
                                                     l2822 1654  
                                                     l2584 0F76  
                                                     l2664 0E2E  
                                                     l2488 0CF8  
                                                     l2920 127C  
                                                     l2904 14B2  
                                                     l2826 1664  
                                                     l2922 128C  
                                                     l2940 12D0  
                                                     l2916 126C  
                                                     l2780 1374  
                                                     l2678 1060  
                                                     l2934 12B0  
                                                     l2926 1294  
                                                     l2696 10B4  
                                                     l2944 12D8  
                                                     l2938 12C0  
                                                     l2892 1488  
                                                     l2884 146C  
                                                     l2964 14DA  
                                                     l2896 1496  
                                                     l2888 147A  
                                                     _ADON 7E10  
                                                     _CFGS 7D36  
                                                     STR_1 081C  
                                                     STR_2 0869  
                                                     STR_3 0829  
                                                     STR_4 080B  
                                                     STR_5 0871  
                                                     STR_6 0856  
                                                     STR_7 0851  
                                                     STR_8 0848  
                                                     STR_9 0861  
                                                     u2010 0B66  
                                                     u2101 0F86  
                                                     u1320 1116  
                                                     u2040 0B9A  
                                                     u2200 104E  
                                                     u1400 1730  
                                                     u2210 107E  
                                                     u2131 0D84  
                                                     u1500 18BC  
                                                     u2151 0DAC  
                                                     u2215 1076  
                                                     u1360 1194  
                                                     u1440 160C  
                                                     _LATD 0F8C  
                                                     u2081 0F5E  
                                                     _LATE 0F8D  
                                                     u2250 10DE  
                                                     u1610 175E  
                                                     u1620 1768  
                                                     u1470 16EC  
                                                     u1710 15BC  
                                                     u2191 1044  
                                                     u1640 176E  
                                                     u1608 175A  
                                                     u1650 1778  
                                                     u2450 1264  
                                                     u1820 0CDA  
                                                     u1740 15D8  
                                                     u1910 0AC2  
                                                     u1638 176A  
                                                     u1590 1758  
                                                     u2470 129A  
                                                     u2607 1874  
                                                     u1840 0D50  
                                                     u1728 15BE  
                                                     u1680 15A6  
                                                     u2617 1880  
                                                     u1850 0D6A  
                                                     u2707 1916  
                                                     u2627 15AE  
                                                     u1940 0AEA  
                                                     u1668 177A  
                                                     u2717 087E  
                                                     u2637 13EA  
                                                     u1790 0C36  
                                                     u1758 15DA  
                                                     u1871 0A90  
                                                     u2647 144E  
                                                     u1881 0AA4  
                                                     u2657 1538  
                                                     u2577 1392  
                                                     u1970 0B28  
                                                     u1698 15A8  
                                                     u2667 154A  
                                                     u2587 13D2  
                                                     u2677 1554  
                                                     u2597 167C  
                                                     u2687 1566  
                                                     u2697 1570  
                                                     _TMR0 0FD6  
                                                     _TRMT 7D61  
                                                     _WREN 7D32  
                                           ??_EscribeLCD_c 0005  
                                                     _Temp 0088  
                                                     _main 14C8  
                                             ___ftpack@arg 0001  
                                             ___ftpack@exp 0004  
                                                     fsr2h 0FDA  
                                                     indf2 0FDF  
                                                     fsr2l 0FD9  
                                                     btemp 004D  
                                     main@buffer_LCD_row_1 0060  
                                     main@buffer_LCD_row_2 0071  
                                                     prodl 0FF3  
                                                     start 000E  
                                         ??_DHT11_ReadData 0001  
                                             ___ftmul@cntr 001A  
                                             ___param_bank 0000  
                                             ___ftmul@sign 001B  
                                                    ??_ISR 0001  
                                             ___fttol@exp1 0045  
                                     __end_of_EEPROM_Write 17FC  
                                             ___fttol@lval 0041  
                              ??_save_temperature_c_EEPROM 0003  
                                           ?_InicializaLCD 0001  
                                                    ?_main 0001  
        __end_of_choose_scale_temperature_and_fill_buffers 0A80  
              ??_choose_scale_temperature_and_fill_buffers 0048  
               ?_choose_scale_temperature_and_fill_buffers 0046  
                _choose_scale_temperature_and_fill_buffers 0878  
                                          __end_of___lbdiv 174E  
                                                    _ADRES 0FC3  
                                                    _EEADR 0FA9  
                                          __end_of___ftadd 0C28  
                                                    STR_10 0848  
                                                    STR_11 083F  
                                                    STR_12 0848  
                                                    STR_13 0859  
                                                    STR_14 0848  
                                                    STR_15 0836  
                                            EscribeLCD_c@a 0005  
                                          __end_of___lbmod 17D6  
                                          __end_of___ftdiv 1034  
                                                    _EEPGD 7D37  
                                          __end_of___ftmul 0E68  
                                                    _T0CON 0FD5  
                                          __end_of___fttol 1106  
                                                    _LATB0 7C50  
                                                    _LATC1 7C59  
                                                    _LATC2 7C5A  
                                                    _LATD0 7C60  
                                                    _LATD1 7C61  
                                                    _LATE0 7C68  
                                                    _LATE1 7C69  
                                                    _LATE2 7C6A  
                                          __end_of___lwdiv 163C  
                                          __end_of___lwmod 1714  
                                                    i2l372 1866  
                                                    _RCSTA 0FAB  
                                                    _SPBRG 0FAF  
                                                    _TRISD 0F95  
                                                    _TRISE 0F96  
                                                    _TXREG 0FAD  
                                                    _TXSTA 0FAC  
                                          ??_EscribeLCD_n8 000A  
                                          __end_of_dpowers 080B  
                                            ___ftpack@sign 0005  
  choose_scale_temperature_and_fill_buffers@temp_converted 0049  
                                                    tablat 0FF5  
                                              _HabilitaLCD 1912  
                                                    ttemp5 004E  
                                                    ttemp6 0051  
                                                    ttemp7 0055  
                                                    status 0FD8  
                                                    wtemp8 004E  
                                          __end_of_sprintf 0D74  
                                          ___lbdiv@divisor 0005  
                                         EEPROM_Write@data 0001  
                                          ___lbdiv@counter 0007  
                                         __end_of_BorraLCD 1902  
                                          __initialization 1780  
                                             __end_of_main 152E  
                                                   ??_main 004B  
                                     __end_of_ConfiguraLCD 18C2  
                                            ___fttol@sign1 0040  
                                    MensajeLCD_Var@counter 0008  
                                            __activetblptr 0002  
                                                   _ADCON0 0FC2  
                                                   _ADCON1 0FC1  
                                                   _ADCON2 0FC0  
                                                   _EEDATA 0FA8  
                                           DireccionaLCD@a 0005  
                                                   _EECON2 0FA7  
                                           EscribeLCD_n8@a 000D  
                                           EscribeLCD_n8@b 0009  
                                      _DHT11_CheckResponse 174E  
                                         __end_of___ftpack 11B4  
                                         __end_of___lbtoft 1846  
                                _save_temperature_c_EEPROM 192C  
                                                   _OSCCON 0FD3  
                                                   _TMR0IE 7F95  
                                                   _TMR0IF 7F92  
                                                   _TMR0ON 7EAF  
                                                   _TRISB0 7C98  
                                                   _TRISC1 7CA1  
                                                   _TRISC2 7CA2  
                                                   _SWDTEN 7E88  
                                    __end_of_DireccionaLCD 18EE  
                                               _RetardoLCD 152E  
choose_scale_temperature_and_fill_buffers@buffer_LCD_row_1 0046  
choose_scale_temperature_and_fill_buffers@buffer_LCD_row_2 0047  
                                     EscribeLCD_n8@centena 000A  
                            send_temperature_RS232@counter 0028  
                                                ??___lbdiv 0006  
                                                ??___ftadd 0031  
                                                ??___lbmod 0002  
                                                ??___ftdiv 0022  
                                     ?_DHT11_CheckResponse 0001  
                                                ??___ftmul 0013  
                                                ??___fttol 003B  
                                                ??___lwdiv 0005  
                                                ??___lwmod 000C  
                                          ??_InicializaLCD 0005  
                                                   isa$std 0001  
                                     __end_of_EscribeLCD_c 18D8  
                                    ___ftmul@f3_as_product 0017  
                                             __pdataCOMRAM 004C  
                                             __mediumconst 0000  
                                   _send_temperature_RS232 163C  
                                                   tblptrh 0FF7  
                                                   tblptrl 0FF6  
                                                   tblptru 0FF8  
                                                ??_sprintf 0013  
                                               _Transmitir 1920  
                                         ___lbdiv@dividend 0006  
                                   _show_temperature_c_RGB 145C  
                                          ___lbmod@divisor 0001  
                                               __accesstop 0060  
                                  __end_of__initialization 179E  
                                          ___lbmod@counter 0003  
                                               ___ftadd@f1 002B  
                                               ___ftadd@f2 002E  
                                            ___rparam_used 0001  
                                               ___ftdiv@f1 001C  
                                               ___ftdiv@f2 001F  
                                               ___ftdiv@f3 0026  
                               __end_of_welcome_operations 13E0  
                                               ___lbtoft@c 000C  
                                               ___ftmul@f1 000D  
                                               ___ftmul@f2 0010  
                                               ___fttol@f1 0037  
                                           __pcstackCOMRAM 0001  
                                    ??_DHT11_CheckResponse 0001  
                                        __end_of_EnviaDato 16D2  
                                         ___lbdiv@quotient 0008  
                                                ?_BorraLCD 0001  
                                           _MensajeLCD_Var 12E0  
                               __end_of_init_configuration 145C  
                                             _EEPROM_Write 17D6  
                                               __pbssBANK0 0085  
                                          MensajeLCD_Var@a 0006  
                                              ?_RetardoLCD 0001  
                                              RetardoLCD@a 0002  
                                                  _BAUDCON 0FB8  
                                                ?___ftpack 0001  
                                                ?___lbtoft 0009  
                                   __end_of_MensajeLCD_Var 1364  
                                               ??_BorraLCD 0005  
                                              ?_Transmitir 0001  
                                             ?_HabilitaLCD 0001  
                                            ??_DHT11_Start 0001  
                 show_temperature_LCD@Scale_Temperature_n1 000A  
                                             _ConfiguraLCD 18AA  
                                                  __Hparam 0000  
                                                  __Lparam 0000  
                                                  ___lbdiv 1714  
                                                  ___ftadd 0A80  
                                                  ___lbmod 17AC  
                                                  ___ftdiv 0F4E  
                                                  ___ftmul 0D74  
                                                  ___fttol 1034  
                                                  ___lwdiv 15EA  
                                                  ___lwmod 16D2  
                                             __psmallconst 0800  
                                                  __pcinit 1780  
                                               ??___ftpack 0006  
                                               ??___lbtoft 000C  
                                                  __ramtop 0800  
                                                  __ptext0 14C8  
                                                  __ptext1 1364  
                                                  __ptext2 12E0  
                                                  __ptext3 0E68  
                                                  __ptext4 17AC  
                                                  __ptext5 1714  
                                                  __ptext6 1902  
                                                  __ptext7 145C  
                                                  __ptext8 1250  
                                                  __ptext9 18C2  
                                                  _dpowers 0801  
                      __end_of_check_potentiometer_voltaje 18AA  
                              _check_potentiometer_voltaje 188C  
                                          ?_MensajeLCD_Var 0006  
                                    __end_of_EscribeLCD_n8 0F4E  
                                                  _sprintf 0C28  
                                           __pintcode_body 1846  
                                     end_of_initialization 179E  
                            ??_check_potentiometer_voltaje 0001  
                                            ??_EEPROM_Read 0001  
                                            __Lmediumconst 0000  
                                                  int_func 1846  
                                             _EscribeLCD_c 18C2  
                                      __end_of_DHT11_Start 188C  
                                                  postdec2 0FDD  
                        __end_of_save_temperature_c_EEPROM 1938  
                                                  postinc2 0FDE  
                                  ?_send_temperature_RS232 0001  
                                         ___lbmod@dividend 0002  
                                  ?_show_temperature_c_RGB 0001  
                                               main@Hum_n1 0083  
                                              ___lbmod@rem 0004  
                                              ___ftdiv@exp 0029  
                                       DHT11_ReadData@data 0003  
                                              ___ftmul@exp 0016  
                                        _Scale_Temperature 0085  
                                      __end_of_EEPROM_Read 1912  
                           __end_of_send_temperature_RS232 168C  
                              show_temperature_LCD@Temp_n1 0008  
                                            __pidataCOMRAM 1938  
                                    __end_of_InicializaLCD 1250  
                                       _welcome_operations 1364  
                                                _EnviaDato 168C  
                           __end_of_show_temperature_c_RGB 14C8  
                                      start_initialization 1780  
                                              __end_of_ISR 186A  
                                      ?_welcome_operations 0001  
                              show_temperature_LCD@counter 000B  
                                             ??_RetardoLCD 0001  
                                              _DHT11_Start 186A  
                              __end_of_DHT11_CheckResponse 1780  
                                      EscribeLCD_n8@decena 000B  
                                     ??_welcome_operations 000E  
                                       _init_configuration 13E0  
                                      EscribeLCD_n8@unidad 000C  
                                      ?_init_configuration 0001  
                                            _Enable_sample 0086  
                                               ?_EnviaDato 0001  
                                              __pbssCOMRAM 004B  
                                       __end_of_RetardoLCD 1594  
                                            __pcstackBANK0 0060  
                             __end_of_show_temperature_LCD 12E0  
                                             ??_Transmitir 0001  
                                     ??_init_configuration 0005  
                                              sprintf@flag 0014  
                                              _EEPROM_Read 1902  
                                              sprintf@prec 0015  
                                            _DireccionaLCD 18D8  
                                         ___lwdiv@dividend 0001  
                                                __pintcode 0008  
                                                 ?___lbdiv 0005  
                                                 ?___ftadd 002B  
                                                 ?___lbmod 0001  
                                                 ?___ftdiv 001C  
                                                 ?___ftmul 000D  
                                                 ?___fttol 0037  
                                                 ?___lwdiv 0001  
                                                 ?___lwmod 0008  
                                       __end_of_Transmitir 192C  
                                           _DHT11_ReadData 1594  
                                         ??_MensajeLCD_Var 0007  
                       send_temperature_RS232@buffer_RS232 001C  
                                              __smallconst 0800  
                                         ___lwdiv@quotient 0005  
                                                 ?_sprintf 000D  
                                           ?_DireccionaLCD 0001  
                                                 i2u255_40 185E  
                                                 i2u256_45 1860  
                                   __end_of_DHT11_ReadData 15EA  
                                              ??_EnviaDato 0003  
                               show_temperature_LCD@Hum_n1 0009  
                                                 _BorraLCD 18EE  
                                                 __Hrparam 0000  
                                                 __Lrparam 0000  
                                     _show_temperature_LCD 1250  
                                          ?_DHT11_ReadData 0001  
                               ?_save_temperature_c_EEPROM 0001  
                                                 ___ftpack 1106  
                                                 ___lbtoft 1822  
                                          DHT11_ReadData@i 0002  
                                            ConfiguraLCD@a 0001  
                                               sprintf@val 0017  
                                          ___lwdiv@divisor 0003  
                                          ___lwdiv@counter 0007  
                                                 __ptext10 18D8  
                                                 __ptext11 163C  
                                                 __ptext20 11B4  
                                                 __ptext12 1920  
                                                 __ptext21 18EE  
                                                 __ptext13 192C  
                                                 __ptext30 1822  
                                                 __ptext22 168C  
                                                 __ptext14 17D6  
                                                 __ptext31 1034  
                                                 __ptext23 152E  
                                                 __ptext15 17FC  
                                                 __ptext32 0D74  
                                                 __ptext24 1912  
                                                 __ptext16 186A  
                                                 __ptext33 0F4E  
                                                 __ptext25 18AA  
                                                 __ptext17 1594  
                                                 __ptext34 0A80  
                                                 __ptext26 0878  
                                                 __ptext18 174E  
                                                 __ptext35 1106  
                                                 __ptext27 0C28  
                                                 __ptext19 13E0  
                                                 __ptext36 188C  
                                                 __ptext28 16D2  
                                                 __ptext29 15EA  
                                            ?_EEPROM_Write 0001  
                                          ??_DireccionaLCD 0005  
                                             ?_DHT11_Start 0001  
                                                 _interfaz 004C  
                                 main@Scale_Temperature_n1 0084  
                                                 isa$xinst 0000  
                                    ?_show_temperature_LCD 0006  
                                                 int$flags 004D  
                     show_temperature_LCD@buffer_LCD_row_1 0006  
                     show_temperature_LCD@buffer_LCD_row_2 0007  
                                           ??_EEPROM_Write 0002  
                                            _EscribeLCD_n8 0E68  
                                                 intlevel2 0000  
                                                sprintf@ap 0016  
                                            ??_HabilitaLCD 0001  
                                                sprintf@sp 000D  
                                         ___lwmod@dividend 0008  
                                             ?_EEPROM_Read 0001  
                                            ?_ConfiguraLCD 0001  
                                       EEPROM_Read@address 0001  
                                                 sprintf@c 0019  
                                                 sprintf@f 000E  
                                          ___lwmod@divisor 000A  
                                          ___lwmod@counter 000C  
                             ?_check_potentiometer_voltaje 0001  
                                           ?_EscribeLCD_n8 0009  
                                           ??_ConfiguraLCD 0001  
                                            ?_EscribeLCD_c 0001  
                                      EEPROM_Write@address 0002  
                                 ??_send_temperature_RS232 001A  
                                      __end_of_HabilitaLCD 1920  
                                   ??_show_temperature_LCD 000B  
